(dp1
S'output'
p2
S''
sS'layer'
p3
S'/home/zhe/codes/awesomequiz/web2py/applications/init/models/db.py'
p4
sS'code'
p5
S'# -*- coding: utf-8 -*- \n\n#########################################################################\n## This scaffolding model makes your app work on Google App Engine too\n#########################################################################\n\n\nif request.env.web2py_runtime_gae:            # if running on Google App Engine\n    db = DAL(\'gae\')                           # connect to Google BigTable\n    session.connect(request, response, db = db) # and store sessions and tickets there\n    ### or use the following lines to store sessions in Memcache\n    # from gluon.contrib.memdb import MEMDB\n    # from google.appengine.api.memcache import Client\n    # session.connect(request, response, db = MEMDB(Client()))\nelse:                                         # else use a normal relational database\n    db = DAL(\'sqlite://storage.sqlite\')       # if not, use SQLite or other DB\n## if no need for session\n# session.forget()\n\n#########################################################################\n## Here is sample code if you need for \n## - email capabilities\n## - authentication (registration, login, logout, ... )\n## - authorization (role based authorization)\n## - services (xml, csv, json, xmlrpc, jsonrpc, amf, rss)\n## - crud actions\n## (more options discussed in gluon/tools.py)\n#########################################################################\n\nfrom gluon.tools import *\nmail = Mail()                                  # mailer\nauth = Auth(globals(),db)                      # authentication/authorization\ncrud = Crud(globals(),db)                      # for CRUD helpers using auth\nservice = Service(globals())                   # for json, xml, jsonrpc, xmlrpc, amfrpc\n\nmail.settings.server = \'logging\' or \'smtp.gmail.com:587\'  # your SMTP server\nmail.settings.sender = \'you@gmail.com\'         # your email\nmail.settings.login = \'username:password\'      # your credentials or None\n\nauth.settings.hmac_key = \'sha512:12660f29-c206-409f-8215-ed11cc55ccf2\'   # before define_tables()\n# define the auth_table before call to auth.define_tables()\nauth_table = db.define_table(\n    auth.settings.table_user_name,\n    Field(\'first_name\', length=128, default=""),\n    Field(\'last_name\', length=128, default=""),\n    Field(\'username\', length=128, default="", unique=True),\n    Field(\'password\', \'password\', length=256,\n          readable=False, label=\'Password\'),\n    Field(\'registration_key\', length=128, default= "",\n          writable=False, readable=False))\n\nauth_table.username.requires = IS_NOT_IN_DB(db, auth_table.username)\n\nauth.define_tables()                           # creates all needed tables\nauth.settings.mailer = mail                    # for user email verification\nauth.settings.registration_requires_verification = False\nauth.settings.registration_requires_approval = False\nauth.messages.verify_email = \'Click on the link http://\'+request.env.http_host+URL(r=request,c=\'default\',f=\'user\',args=[\'verify_email\'])+\'/%(key)s to verify your email\'\nauth.settings.reset_password_requires_verification = True\nauth.messages.reset_password = \'Click on the link http://\'+request.env.http_host+URL(r=request,c=\'default\',f=\'user\',args=[\'reset_password\'])+\'/%(key)s to reset your password\'\n\ncrud.settings.auth = None                      # =auth to enforce authorization on crud\n\n################################################################################\n## use fb auth\n## for facebook "graphbook" application\n################################################################################\n\n\nimport sys, os\npath = os.path.join(request.folder, \'modules\')\nif not path in sys.path:\n    sys.path.append(path)\nfrom fbappauth import CLIENT_ID,CLIENT_SECRET\nfrom facebook import GraphAPI, GraphAPIError\nfrom gluon.contrib.login_methods.oauth20_account import OAuthAccount\nclass FaceBookAccount(OAuthAccount):\n    """OAuth impl for FaceBook"""\n    AUTH_URL="https://graph.facebook.com/oauth/authorize"\n    TOKEN_URL="https://graph.facebook.com/oauth/access_token"\n\n    def __init__(self, g):\n        OAuthAccount.__init__(self, g, CLIENT_ID, CLIENT_SECRET,\n                              self.AUTH_URL, self.TOKEN_URL,\n                              scope=\'user_photos,friends_photos\')\n        self.graph = None\n\n    def get_user(self):\n        \'\'\'Returns the user using the Graph API.\n        \'\'\'\n\n        if not self.accessToken():\n            return None\n        \n        if not self.graph:\n            self.graph = GraphAPI((self.accessToken()))\n\n        user = None\n        try:\n            user = self.graph.get_object("me")\n        except GraphAPIError, e:\n            self.session.token = None\n            self.graph = None\n\n\n        if user:\n            return dict(first_name = user[\'first_name\'],\n                        last_name = user[\'last_name\'],\n                        username = user[\'id\'])\n\n\ncrud.settings.auth = None                      # =auth to enforce authorization on crud\nauth.settings.actions_disabled=[\'register\',\'change_password\',\'request_reset_password\',\'profile\']\nauth.settings.login_form=FaceBookAccount(globals())\n#auth.settings.login_next=URL(f=\'index\')\n#########################################################################\n## Define your tables below (or better in another model file) for example\n##\n## >>> db.define_table(\'mytable\',Field(\'myfield\',\'string\'))\n##\n## Fields can be \'string\',\'text\',\'password\',\'integer\',\'double\',\'boolean\'\n##       \'date\',\'time\',\'datetime\',\'blob\',\'upload\', \'reference TABLENAME\'\n## There is an implicit \'id integer autoincrement\' field\n## Consult manual for more options, validators, etc.\n##\n## More API examples for controllers:\n##\n## >>> db.mytable.insert(myfield=\'value\')\n## >>> rows=db(db.mytable.myfield==\'value\').select(db.mytable.ALL)\n## >>> for row in rows: print row.id, row.myfield\n#########################################################################\n'
p6
sS'snapshot'
p7
(dp8
S'exception'
p9
(dp10
S'__hash__'
p11
S"<method-wrapper '__hash__' of exceptions.ImportError object>"
p12
sS'__setattr__'
p13
S"<method-wrapper '__setattr__' of exceptions.ImportError object>"
p14
sS'__reduce_ex__'
p15
S'<built-in method __reduce_ex__ of exceptions.ImportError object>'
p16
sS'__getslice__'
p17
S"<method-wrapper '__getslice__' of exceptions.ImportError object>"
p18
sS'__getitem__'
p19
S"<method-wrapper '__getitem__' of exceptions.ImportError object>"
p20
sS'__setstate__'
p21
S'<built-in method __setstate__ of exceptions.ImportError object>'
p22
sS'__reduce__'
p23
S'<built-in method __reduce__ of exceptions.ImportError object>'
p24
sS'__str__'
p25
S"<method-wrapper '__str__' of exceptions.ImportError object>"
p26
sS'__format__'
p27
S'<built-in method __format__ of exceptions.ImportError object>'
p28
sS'__getattribute__'
p29
S"<method-wrapper '__getattribute__' of exceptions.ImportError object>"
p30
sS'__class__'
p31
S"<type 'exceptions.ImportError'>"
p32
sS'__unicode__'
p33
S'<built-in method __unicode__ of exceptions.ImportError object>'
p34
sS'__delattr__'
p35
S"<method-wrapper '__delattr__' of exceptions.ImportError object>"
p36
sS'__subclasshook__'
p37
S'<built-in method __subclasshook__ of type object>'
p38
sS'__repr__'
p39
S"<method-wrapper '__repr__' of exceptions.ImportError object>"
p40
sS'args'
p41
S"('cannot import name CLIENT_SECRET',)"
p42
sS'__dict__'
p43
S'{}'
p44
sS'__sizeof__'
p45
S'<built-in method __sizeof__ of exceptions.ImportError object>'
p46
sS'__doc__'
p47
S'"Import can\'t find module, or can\'t find name in module."'
p48
sS'__init__'
p49
S"<method-wrapper '__init__' of exceptions.ImportError object>"
p50
sS'__new__'
p51
S'<built-in method __new__ of type object>'
p52
ssS'evalue'
p53
S'cannot import name CLIENT_SECRET'
p54
sS'request'
p55
(dp56
S'function'
p57
S"'index'"
p58
sS'body'
p59
S'<cStringIO.StringO object>'
p60
sS'wsgi'
p61
S"<Storage {'start_response': <function <lambda> a...>, 'HTTP_ACCEPT_ENCODING': 'gzip,deflate,sdch'}}>"
p62
sS'extension'
p63
S"'html'"
p64
sS'vars'
p65
S'<Storage {}>'
p66
sS'cid'
p67
S'None'
p68
sS'url'
p69
S'<gluon.html.XML object>'
p70
sg41
S'[]'
p71
sS'controller'
p72
S"'default'"
p73
sS'cookies'
p74
S"<SimpleCookie: session_id_admin='127-0-0-1-46c14...'127-0-0-1-b8c384f0-1121-4f7a-a646-363ab8bd55f9'>"
p75
sS'application'
p76
S"'init'"
p77
sS'ajax'
p78
S'False'
p79
sS'client'
p80
S"'127.0.0.1'"
p81
sS'env'
p82
S"<Storage {'http_user_agent': 'Mozilla/5.0 (X11; ...ch', 'query_string': '', 'wsgi_run_once': False}>"
p83
sS'raw_args'
p84
S'None'
p85
sS'get_vars'
p86
S'<Storage {}>'
p87
sS'folder'
p88
S"'/home/zhe/codes/awesomequiz/web2py/applications/init/'"
p89
sS'now'
p90
S'datetime.datetime(2010, 11, 4, 19, 57, 5, 152622)'
p91
sS'post_vars'
p92
S'<Storage {}>'
p93
ssS'frames'
p94
(lp95
(dp96
S'file'
p97
S'/home/zhe/codes/awesomequiz/web2py/gluon/restricted.py'
p98
sS'dump'
p99
(dp100
S'environment'
p101
S"{'A': <class 'gluon.html.A'>, 'Auth': <class 'gluon.tools.Auth'>, 'B': <class 'gluon.html.B'>, 'BEAUTIFY': <class 'gluon.html.BEAUTIFY'>, 'BODY': <class 'gluon.html.BODY'>, 'BR': <class 'gluon.html.BR'>, 'CENTER': <class 'gluon.html.CENTER'>, 'CLEANUP': <class 'gluon.validators.CLEANUP'>, 'CLIENT_ID': '171657759516876', 'CODE': <class 'gluon.html.CODE'>, ...}"
p102
sS'ccode'
p103
S'<code object <module> at 0x9e61068, file "/home/...z/web2py/applications/init/models/db.py", line 8>'
p104
ssS'lnum'
p105
I188
sS'lines'
p106
(dp107
I192
S'        # XXX Show exception in Wing IDE if running in debugger'
p108
sI183
S'        if type(code) == types.CodeType:'
p109
sI184
S'            ccode = code'
p110
sI185
S'        else:'
p111
sI186
S'            ccode = compile2(code,layer)'
p112
sI187
S''
sI188
S'        exec ccode in environment'
p113
sI189
S'    except HTTP:'
p114
sI190
S'        raise'
p115
sI191
S'    except Exception:'
p116
ssS'call'
p117
S"(code='# -*- coding: utf-8 -*- \\n\\n######################...################################################\\n', environment={'A': <class 'gluon.html.A'>, 'Auth': <class 'gluon.tools.Auth'>, 'B': <class 'gluon.html.B'>, 'BEAUTIFY': <class 'gluon.html.BEAUTIFY'>, 'BODY': <class 'gluon.html.BODY'>, 'BR': <class 'gluon.html.BR'>, 'CENTER': <class 'gluon.html.CENTER'>, 'CLEANUP': <class 'gluon.validators.CLEANUP'>, 'CLIENT_ID': '171657759516876', 'CODE': <class 'gluon.html.CODE'>, ...}, layer='/home/zhe/codes/awesomequiz/web2py/applications/init/models/db.py')"
p118
sS'func'
p119
S'restricted'
p120
sa(dp121
g97
S'/home/zhe/codes/awesomequiz/web2py/applications/init/models/db.py'
p122
sg99
(dp123
S'CLIENT_SECRET'
p124
S'undefined'
p125
sS'CLIENT_ID'
p126
S"'171657759516876'"
p127
sS'fbappauth'
p128
g125
ssg105
I74
sg106
(dp129
I69
S''
sI70
S'import sys, os'
p130
sI71
S"path = os.path.join(request.folder, 'modules')"
p131
sI72
S'if not path in sys.path:'
p132
sI73
S'    sys.path.append(path)'
p133
sI74
S'from fbappauth import CLIENT_ID,CLIENT_SECRET'
p134
sI75
S'from facebook import GraphAPI, GraphAPIError'
p135
sI76
S'from gluon.contrib.login_methods.oauth20_account import OAuthAccount'
p136
sI77
S'class FaceBookAccount(OAuthAccount):'
p137
sI78
S'    """OAuth impl for FaceBook"""'
p138
ssg117
S'()'
p139
sg119
S'<module>'
p140
sasS'pyver'
p141
S'Python 2.6.5: /usr/bin/python'
p142
sS'session'
p143
(dp144
S'auth'
p145
S'None'
p146
ssS'etype'
p147
S"<type 'exceptions.ImportError'>"
p148
sS'date'
p149
S'Thu Nov  4 19:57:05 2010'
p150
sS'response'
p151
(dp152
S'status'
p153
S'200'
p154
sg59
S'<cStringIO.StringO object>'
p155
sg74
S"<SimpleCookie: session_id_init='127-0-0-1-6283989f-b5db-4d12-b1f5-ec703124ccde'>"
p156
sS'_vars'
p157
S'None'
p158
sS'menu'
p159
S'[]'
p160
sS'flash'
p161
S"''"
p162
sS'session_new'
p163
S'True'
p164
sS'_custom_rollback'
p165
S'None'
p166
sS'session_id'
p167
S"'127-0-0-1-6283989f-b5db-4d12-b1f5-ec703124ccde'"
p168
sS'headers'
p169
S"<Storage {'Expires': 'Thu, 04 Nov 2010 18:57:05 ...he, must-revalidate, post-check=0, pre-check=0'}>"
p170
sS'meta'
p171
S'<Storage {}>'
p172
sS'session_filename'
p173
S"'/home/zhe/codes/awesomequiz/web2py/applications/...ns/127-0-0-1-6283989f-b5db-4d12-b1f5-ec703124ccde'"
p174
sS'postprocessing'
p175
S'[]'
p176
sS'_caller'
p177
S'<function <lambda>>'
p178
sS'_view_environment'
p179
S"{'A': <class 'gluon.html.A'>, 'B': <class 'gluon.html.B'>, 'BEAUTIFY': <class 'gluon.html.BEAUTIFY'>, 'BODY': <class 'gluon.html.BODY'>, 'BR': <class 'gluon.html.BR'>, 'CENTER': <class 'gluon.html.CENTER'>, 'CLEANUP': <class 'gluon.validators.CLEANUP'>, 'CODE': <class 'gluon.html.CODE'>, 'CRYPT': <class 'gluon.validators.CRYPT'>, 'DAL': <function DAL>, ...}"
p180
sS'session_id_name'
p181
S"'session_id_init'"
p182
sS'_custom_commit'
p183
S'None'
p184
sS'files'
p185
S'[]'
p186
sS'view'
p187
S"'default/index.html'"
p188
ssS'locals'
p189
(dp190
S'Service'
p191
S'<class gluon.tools.Service>'
p192
sS'OBJECT'
p193
S"<class 'gluon.html.OBJECT'>"
p194
sS'SQLDB'
p195
S"<class 'gluon.sql.SQLDB'>"
p196
sg143
S"<Storage {'auth': None}>"
p197
sS'LINK'
p198
S"<class 'gluon.html.LINK'>"
p199
sS'BR'
p200
S"<class 'gluon.html.BR'>"
p201
sS'local_import'
p202
S'<function <lambda>>'
p203
sS'OPTGROUP'
p204
S"<class 'gluon.html.OPTGROUP'>"
p205
sS'PRE'
p206
S"<class 'gluon.html.PRE'>"
p207
sS'IS_INT_IN_RANGE'
p208
S"<class 'gluon.validators.IS_INT_IN_RANGE'>"
p209
sS'IS_LOWER'
p210
S"<class 'gluon.validators.IS_LOWER'>"
p211
sS'IS_STRONG'
p212
S"<class 'gluon.validators.IS_STRONG'>"
p213
sS'Recaptcha'
p214
S"<class 'gluon.tools.Recaptcha'>"
p215
sS'cache'
p216
S'<gluon.cache.Cache object>'
p217
sS'IS_IN_DB'
p218
S"<class 'gluon.validators.IS_IN_DB'>"
p219
sS'TAG'
p220
S'<gluon.html.__TAG__ object>'
p221
sS'SQLField'
p222
S"<class 'gluon.sql.Field'>"
p223
sS'mail'
p224
S'<gluon.tools.Mail object>'
p225
sS'BODY'
p226
S"<class 'gluon.html.BODY'>"
p227
sS'IS_DATE_IN_RANGE'
p228
S"<class 'gluon.validators.IS_DATE_IN_RANGE'>"
p229
sS'IFRAME'
p230
S"<class 'gluon.html.IFRAME'>"
p231
sS'URL'
p232
S'<function _URL>'
p233
sS'db'
p234
S"<SQLDB {'_connection': <sqlite3.Connection objec...0xa14ae4c>}>, '_migrate': True, '_pool_size': 0}>"
p235
sg145
S'<gluon.tools.Auth object>'
p236
sS'P'
S"<class 'gluon.html.P'>"
p237
sS'TFOOT'
p238
S"<class 'gluon.html.TFOOT'>"
p239
sS'XHTML'
p240
S"<class 'gluon.html.XHTML'>"
p241
sS'ON'
p242
g164
sS'OL'
p243
S"<class 'gluon.html.OL'>"
p244
sS'TEXTAREA'
p245
S"<class 'gluon.html.TEXTAREA'>"
p246
sS'MENU'
p247
S"<class 'gluon.html.MENU'>"
p248
sS'EM'
p249
S"<class 'gluon.html.EM'>"
p250
sS'CODE'
p251
S"<class 'gluon.html.CODE'>"
p252
sS'HTTP'
p253
S"<class 'gluon.http.HTTP'>"
p254
sS'HR'
p255
S"<class 'gluon.html.HR'>"
p256
sS'IS_DATETIME'
p257
S"<class 'gluon.validators.IS_DATETIME'>"
p258
sS'STYLE'
p259
S"<class 'gluon.html.STYLE'>"
p260
sS'LABEL'
p261
S"<class 'gluon.html.LABEL'>"
p262
sS'META'
p263
S"<class 'gluon.html.META'>"
p264
sS'SELECT'
p265
S"<class 'gluon.html.SELECT'>"
p266
sS'CENTER'
p267
S"<class 'gluon.html.CENTER'>"
p268
sS'prettydate'
p269
S'<function prettydate>'
p270
sS'Crud'
p271
S"<class 'gluon.tools.Crud'>"
p272
sS'Auth'
p273
S"<class 'gluon.tools.Auth'>"
p274
sS'__builtins__'
p275
S"{'ArithmeticError': <type 'exceptions.ArithmeticError'>, 'AssertionError': <type 'exceptions.AssertionError'>, 'AttributeError': <type 'exceptions.AttributeError'>, 'BaseException': <type 'exceptions.BaseException'>, 'BufferError': <type 'exceptions.BufferError'>, 'BytesWarning': <type 'exceptions.BytesWarning'>, 'DeprecationWarning': <type 'exceptions.DeprecationWarning'>, 'EOFError': <type 'exceptions.EOFError'>, 'Ellipsis': Ellipsis, 'EnvironmentError': <type 'exceptions.EnvironmentError'>, ...}"
p276
sS'IS_LIST_OF'
p277
S"<class 'gluon.validators.IS_LIST_OF'>"
p278
sS'SQLFORM'
p279
S"<class 'gluon.sqlhtml.SQLFORM'>"
p280
sS'LOAD'
p281
S'<gluon.compileapp.LoadFactory instance>'
p282
sS'redirect'
p283
S'<function redirect>'
p284
sS'FIELDSET'
p285
S"<class 'gluon.html.FIELDSET'>"
p286
sS'IS_EQUAL_TO'
p287
S"<class 'gluon.validators.IS_EQUAL_TO'>"
p288
sS'embed64'
p289
S'<function embed64>'
p290
sS'INPUT'
p291
S"<class 'gluon.html.INPUT'>"
p292
sS'EMBED'
p293
S"<class 'gluon.html.EMBED'>"
p294
sS'FORM'
p295
S"<class 'gluon.html.FORM'>"
p296
sS'H2'
p297
S"<class 'gluon.html.H2'>"
p298
sS'H3'
p299
S"<class 'gluon.html.H3'>"
p300
sS'H1'
p301
S"<class 'gluon.html.H1'>"
p302
sS'H6'
p303
S"<class 'gluon.html.H6'>"
p304
sS'H4'
p305
S"<class 'gluon.html.H4'>"
p306
sS'H5'
p307
S"<class 'gluon.html.H5'>"
p308
sS'UL'
p309
S"<class 'gluon.html.UL'>"
p310
sS'IS_UPPER'
p311
S"<class 'gluon.validators.IS_UPPER'>"
p312
sS'xmlescape'
p313
S'<function xmlescape>'
p314
sS'IS_TIME'
p315
S"<class 'gluon.validators.IS_TIME'>"
p316
sS'os'
p317
S"<module 'os' from '/usr/lib/python2.6/os.pyc'>"
p318
sS'OPTION'
p319
S"<class 'gluon.html.OPTION'>"
p320
sS'TITLE'
p321
S"<class 'gluon.html.TITLE'>"
p322
sS'CRYPT'
p323
S"<class 'gluon.validators.CRYPT'>"
p324
sS'IS_EMPTY_OR'
p325
S"<class 'gluon.validators.IS_EMPTY_OR'>"
p326
sS'MARKMIN'
p327
S"<class 'gluon.html.MARKMIN'>"
p328
sS'path'
p329
S"'/home/zhe/codes/awesomequiz/web2py/applications/init/modules'"
p330
sS'auth_table'
p331
S"<Table {'username': <gluon.sql.Field object at 0...c>, 'id': <gluon.sql.Field object at 0xa14ae4c>}>"
p332
sS'service'
p333
S'<gluon.tools.Service instance>'
p334
sS'SCRIPT'
p335
S"<class 'gluon.html.SCRIPT'>"
p336
sS'geocode'
p337
S'<function geocode>'
p338
sS'TABLE'
p339
S"<class 'gluon.html.TABLE'>"
p340
sS'IS_IPV4'
p341
S"<class 'gluon.validators.IS_IPV4'>"
p342
sS'IS_LENGTH'
p343
S"<class 'gluon.validators.IS_LENGTH'>"
p344
sS'XML'
p345
S"<class 'gluon.html.XML'>"
p346
sS'B'
S"<class 'gluon.html.B'>"
p347
sS'IMG'
p348
S"<class 'gluon.html.IMG'>"
p349
sS'SQLTABLE'
p350
S"<class 'gluon.sqlhtml.SQLTABLE'>"
p351
sS'IS_MATCH'
p352
S"<class 'gluon.validators.IS_MATCH'>"
p353
sS'IS_ALPHANUMERIC'
p354
S"<class 'gluon.validators.IS_ALPHANUMERIC'>"
p355
sS'SPAN'
p356
S"<class 'gluon.html.SPAN'>"
p357
sS'IS_SLUG'
p358
S"<class 'gluon.validators.IS_SLUG'>"
p359
sS'CLEANUP'
p360
S"<class 'gluon.validators.CLEANUP'>"
p361
sS'fetch'
p362
S'<function fetch>'
p363
sS'IS_DATE'
p364
S"<class 'gluon.validators.IS_DATE'>"
p365
sS'IS_EMAIL'
p366
S"<class 'gluon.validators.IS_EMAIL'>"
p367
sS'IS_NOT_EMPTY'
p368
S"<class 'gluon.validators.IS_NOT_EMPTY'>"
p369
sS'IS_FLOAT_IN_RANGE'
p370
S"<class 'gluon.validators.IS_FLOAT_IN_RANGE'>"
p371
sS'BEAUTIFY'
p372
S"<class 'gluon.html.BEAUTIFY'>"
p373
sS'TBODY'
p374
S"<class 'gluon.html.TBODY'>"
p375
sS'Field'
p376
S"<class 'gluon.sql.Field'>"
p377
sS'CLIENT_ID'
p378
S"'171657759516876'"
p379
sS'Mail'
p380
S"<class 'gluon.tools.Mail'>"
p381
sS'DIV'
p382
S"<class 'gluon.html.DIV'>"
p383
sS'LEGEND'
p384
S"<class 'gluon.html.LEGEND'>"
p385
sS'DAL'
p386
S'<function DAL>'
p387
sS'TT'
p388
S"<class 'gluon.html.TT'>"
p389
sS'TR'
p390
S"<class 'gluon.html.TR'>"
p391
sS'LI'
p392
S"<class 'gluon.html.LI'>"
p393
sS'TH'
p394
S"<class 'gluon.html.TH'>"
p395
sS'TD'
p396
S"<class 'gluon.html.TD'>"
p397
sS'PluginManager'
p398
S"<class 'gluon.tools.PluginManager'>"
p399
sS'IS_URL'
p400
S"<class 'gluon.validators.IS_URL'>"
p401
sS'A'
S"<class 'gluon.html.A'>"
p402
sS'HEAD'
p403
S"<class 'gluon.html.HEAD'>"
p404
sS'IS_DATETIME_IN_RANGE'
p405
S"<class 'gluon.validators.IS_DATETIME_IN_RANGE'>"
p406
sS'HTML'
p407
S"<class 'gluon.html.HTML'>"
p408
sS'IS_IMAGE'
p409
S"<class 'gluon.validators.IS_IMAGE'>"
p410
sS'I'
S"<class 'gluon.html.I'>"
p411
sS'crud'
p412
S'<gluon.tools.Crud object>'
p413
sS'sys'
p414
S"<module 'sys' (built-in)>"
p415
sS'IS_NOT_IN_DB'
p416
S"<class 'gluon.validators.IS_NOT_IN_DB'>"
p417
sg151
S"<Storage {'status': 200, 'body': <cStringIO.Stri...t': None, 'files': [], '_custom_rollback': None}>"
p418
sS'THEAD'
p419
S"<class 'gluon.html.THEAD'>"
p420
sS'IS_NULL_OR'
p421
S"<class 'gluon.validators.IS_EMPTY_OR'>"
p422
sg55
S"<Storage {'function': 'index', 'body': <cStringI..., 19, 57, 5, 152622), 'post_vars': <Storage {}>}>"
p423
sS'IS_EXPR'
p424
S"<class 'gluon.validators.IS_EXPR'>"
p425
sS'IS_IN_SET'
p426
S"<class 'gluon.validators.IS_IN_SET'>"
p427
sS'IS_UPLOAD_FILENAME'
p428
S"<class 'gluon.validators.IS_UPLOAD_FILENAME'>"
p429
sS'IS_DECIMAL_IN_RANGE'
p430
S"<class 'gluon.validators.IS_DECIMAL_IN_RANGE'>"
p431
sS'T'
S'<gluon.languages.translator object>'
p432
sssS'traceback'
p433
S'Traceback (most recent call last):\n  File "/home/zhe/codes/awesomequiz/web2py/gluon/restricted.py", line 188, in restricted\n    exec ccode in environment\n  File "/home/zhe/codes/awesomequiz/web2py/applications/init/models/db.py", line 74, in <module>\n    from fbappauth import CLIENT_ID,CLIENT_SECRET\nImportError: cannot import name CLIENT_SECRET\n'
p434
s.