(dp1
S'output'
p2
S''
sS'layer'
p3
S'/home/zhe/codes/awesomequiz/web2py/applications/init/models/db.py'
p4
sS'code'
p5
S'# -*- coding: utf-8 -*- \n\n#########################################################################\n## This scaffolding model makes your app work on Google App Engine too\n#########################################################################\n\n\nif request.env.web2py_runtime_gae:            # if running on Google App Engine\n    db = DAL(\'gae\')                           # connect to Google BigTable\n    session.connect(request, response, db = db) # and store sessions and tickets there\n    ### or use the following lines to store sessions in Memcache\n    # from gluon.contrib.memdb import MEMDB\n    # from google.appengine.api.memcache import Client\n    # session.connect(request, response, db = MEMDB(Client()))\nelse:                                         # else use a normal relational database\n    db = DAL(\'sqlite://storage.sqlite\')       # if not, use SQLite or other DB\n## if no need for session\n# session.forget()\n\n#########################################################################\n## Here is sample code if you need for \n## - email capabilities\n## - authentication (registration, login, logout, ... )\n## - authorization (role based authorization)\n## - services (xml, csv, json, xmlrpc, jsonrpc, amf, rss)\n## - crud actions\n## (more options discussed in gluon/tools.py)\n#########################################################################\n\nfrom gluon.tools import *\nmail = Mail()                                  # mailer\nauth = Auth(globals(),db)                      # authentication/authorization\ncrud = Crud(globals(),db)                      # for CRUD helpers using auth\nservice = Service(globals())                   # for json, xml, jsonrpc, xmlrpc, amfrpc\n\nmail.settings.server = \'logging\' or \'smtp.gmail.com:587\'  # your SMTP server\nmail.settings.sender = \'you@gmail.com\'         # your email\nmail.settings.login = \'username:password\'      # your credentials or None\n\nauth.settings.hmac_key = \'sha512:12660f29-c206-409f-8215-ed11cc55ccf2\'   # before define_tables()\n# define the auth_table before call to auth.define_tables()\nauth_table = db.define_table(\n    auth.settings.table_user_name,\n    Field(\'first_name\', length=128, default=""),\n    Field(\'last_name\', length=128, default=""),\n    Field(\'username\', length=128, default="", unique=True),\n    Field(\'password\', \'password\', length=256,\n          readable=False, label=\'Password\'),\n    Field(\'registration_key\', length=128, default= "",\n          writable=False, readable=False))\n\nauth_table.username.requires = IS_NOT_IN_DB(db, auth_table.username)\n\nauth.define_tables()                           # creates all needed tables\nauth.settings.mailer = mail                    # for user email verification\nauth.settings.registration_requires_verification = False\nauth.settings.registration_requires_approval = False\nauth.messages.verify_email = \'Click on the link http://\'+request.env.http_host+URL(r=request,c=\'default\',f=\'user\',args=[\'verify_email\'])+\'/%(key)s to verify your email\'\nauth.settings.reset_password_requires_verification = True\nauth.messages.reset_password = \'Click on the link http://\'+request.env.http_host+URL(r=request,c=\'default\',f=\'user\',args=[\'reset_password\'])+\'/%(key)s to reset your password\'\n\ncrud.settings.auth = None                      # =auth to enforce authorization on crud\n\n################################################################################\n## use fb auth\n## for facebook "graphbook" application\n################################################################################\n\n\nimport sys, os\npath = os.path.join(request.folder, \'modules\')\nif not path in sys.path:\n    sys.path.append(path)\nfrom fbappauth import CLIENT_ID,CLIENT_SECRET\nfrom facebook import GraphAPI, GraphAPIError\nfrom gluon.contrib.login_methods.oauth20_account import OAuthAccount\nclass FaceBookAccount(OAuthAccount):\n    """OAuth impl for FaceBook"""\n    AUTH_URL="https://graph.facebook.com/oauth/authorize"\n    TOKEN_URL="https://graph.facebook.com/oauth/access_token"\n\n    def __init__(self, g):\n        OAuthAccount.__init__(self, g, CLIENT_ID, CLIENT_SECRET,\n                              self.AUTH_URL, self.TOKEN_URL,\n                              scope=\'user_photos,friends_photos\')\n        self.graph = None\n\n    def get_user(self):\n        \'\'\'Returns the user using the Graph API.\n        \'\'\'\n\n        if not self.accessToken():\n            return None\n        \n        if not self.graph:\n            self.graph = GraphAPI((self.accessToken()))\n\n        user = None\n        try:\n            user = self.graph.get_object("me")\n        except GraphAPIError, e:\n            self.session.token = None\n            self.graph = None\n\n\n        if user:\n            return dict(first_name = user[\'first_name\'],\n                        last_name = user[\'last_name\'],\n                        username = user[\'id\'])\n\n\ncrud.settings.auth = None                      # =auth to enforce authorization on crud\nauth.settings.actions_disabled=[\'register\',\'change_password\',\'request_reset_password\',\'profile\']\nauth.settings.login_form=FaceBookAccount(globals())\n#auth.settings.login_next=URL(f=\'index\')\n#########################################################################\n## Define your tables below (or better in another model file) for example\n##\n## >>> db.define_table(\'mytable\',Field(\'myfield\',\'string\'))\n##\n## Fields can be \'string\',\'text\',\'password\',\'integer\',\'double\',\'boolean\'\n##       \'date\',\'time\',\'datetime\',\'blob\',\'upload\', \'reference TABLENAME\'\n## There is an implicit \'id integer autoincrement\' field\n## Consult manual for more options, validators, etc.\n##\n## More API examples for controllers:\n##\n## >>> db.mytable.insert(myfield=\'value\')\n## >>> rows=db(db.mytable.myfield==\'value\').select(db.mytable.ALL)\n## >>> for row in rows: print row.id, row.myfield\n#########################################################################\n'
p6
sS'snapshot'
p7
(dp8
S'exception'
p9
(dp10
S'__hash__'
p11
S"<method-wrapper '__hash__' of exceptions.ImportError object>"
p12
sS'__setattr__'
p13
S"<method-wrapper '__setattr__' of exceptions.ImportError object>"
p14
sS'__reduce_ex__'
p15
S'<built-in method __reduce_ex__ of exceptions.ImportError object>'
p16
sS'__getslice__'
p17
S"<method-wrapper '__getslice__' of exceptions.ImportError object>"
p18
sS'__getitem__'
p19
S"<method-wrapper '__getitem__' of exceptions.ImportError object>"
p20
sS'__setstate__'
p21
S'<built-in method __setstate__ of exceptions.ImportError object>'
p22
sS'__reduce__'
p23
S'<built-in method __reduce__ of exceptions.ImportError object>'
p24
sS'__str__'
p25
S"<method-wrapper '__str__' of exceptions.ImportError object>"
p26
sS'__format__'
p27
S'<built-in method __format__ of exceptions.ImportError object>'
p28
sS'__getattribute__'
p29
S"<method-wrapper '__getattribute__' of exceptions.ImportError object>"
p30
sS'__class__'
p31
S"<type 'exceptions.ImportError'>"
p32
sS'__unicode__'
p33
S'<built-in method __unicode__ of exceptions.ImportError object>'
p34
sS'__delattr__'
p35
S"<method-wrapper '__delattr__' of exceptions.ImportError object>"
p36
sS'__subclasshook__'
p37
S'<built-in method __subclasshook__ of type object>'
p38
sS'__repr__'
p39
S"<method-wrapper '__repr__' of exceptions.ImportError object>"
p40
sS'args'
p41
S"('No module named fbappauth',)"
p42
sS'__dict__'
p43
S'{}'
p44
sS'__sizeof__'
p45
S'<built-in method __sizeof__ of exceptions.ImportError object>'
p46
sS'__doc__'
p47
S'"Import can\'t find module, or can\'t find name in module."'
p48
sS'__init__'
p49
S"<method-wrapper '__init__' of exceptions.ImportError object>"
p50
sS'__new__'
p51
S'<built-in method __new__ of type object>'
p52
ssS'evalue'
p53
S'No module named fbappauth'
p54
sS'request'
p55
(dp56
S'function'
p57
S"'index'"
p58
sS'body'
p59
S'<cStringIO.StringO object>'
p60
sS'wsgi'
p61
S"<Storage {'start_response': <function <lambda> a...>, 'HTTP_ACCEPT_ENCODING': 'gzip,deflate,sdch'}}>"
p62
sS'extension'
p63
S"'html'"
p64
sS'vars'
p65
S'<Storage {}>'
p66
sS'cid'
p67
S'None'
p68
sS'url'
p69
S'<gluon.html.XML object>'
p70
sg41
S'[]'
p71
sS'controller'
p72
S"'default'"
p73
sS'cookies'
p74
S"<SimpleCookie: session_id_admin='127-0-0-1-46c14...'127-0-0-1-b8c384f0-1121-4f7a-a646-363ab8bd55f9'>"
p75
sS'application'
p76
S"'init'"
p77
sS'ajax'
p78
S'False'
p79
sS'client'
p80
S"'127.0.0.1'"
p81
sS'env'
p82
S"<Storage {'http_user_agent': 'Mozilla/5.0 (X11; ...ch', 'query_string': '', 'wsgi_run_once': False}>"
p83
sS'raw_args'
p84
S'None'
p85
sS'get_vars'
p86
S'<Storage {}>'
p87
sS'folder'
p88
S"'/home/zhe/codes/awesomequiz/web2py/applications/init/'"
p89
sS'now'
p90
S'datetime.datetime(2010, 11, 4, 19, 54, 7, 69975)'
p91
sS'post_vars'
p92
S'<Storage {}>'
p93
ssS'frames'
p94
(lp95
(dp96
S'file'
p97
S'/home/zhe/codes/awesomequiz/web2py/gluon/restricted.py'
p98
sS'dump'
p99
(dp100
S'environment'
p101
S"{'A': <class 'gluon.html.A'>, 'Auth': <class 'gluon.tools.Auth'>, 'B': <class 'gluon.html.B'>, 'BEAUTIFY': <class 'gluon.html.BEAUTIFY'>, 'BODY': <class 'gluon.html.BODY'>, 'BR': <class 'gluon.html.BR'>, 'CENTER': <class 'gluon.html.CENTER'>, 'CLEANUP': <class 'gluon.validators.CLEANUP'>, 'CODE': <class 'gluon.html.CODE'>, 'CRYPT': <class 'gluon.validators.CRYPT'>, ...}"
p102
sS'ccode'
p103
S'<code object <module> at 0x9c15650, file "/home/...z/web2py/applications/init/models/db.py", line 8>'
p104
ssS'lnum'
p105
I188
sS'lines'
p106
(dp107
I192
S'        # XXX Show exception in Wing IDE if running in debugger'
p108
sI183
S'        if type(code) == types.CodeType:'
p109
sI184
S'            ccode = code'
p110
sI185
S'        else:'
p111
sI186
S'            ccode = compile2(code,layer)'
p112
sI187
S''
sI188
S'        exec ccode in environment'
p113
sI189
S'    except HTTP:'
p114
sI190
S'        raise'
p115
sI191
S'    except Exception:'
p116
ssS'call'
p117
S"(code='# -*- coding: utf-8 -*- \\n\\n######################...################################################\\n', environment={'A': <class 'gluon.html.A'>, 'Auth': <class 'gluon.tools.Auth'>, 'B': <class 'gluon.html.B'>, 'BEAUTIFY': <class 'gluon.html.BEAUTIFY'>, 'BODY': <class 'gluon.html.BODY'>, 'BR': <class 'gluon.html.BR'>, 'CENTER': <class 'gluon.html.CENTER'>, 'CLEANUP': <class 'gluon.validators.CLEANUP'>, 'CODE': <class 'gluon.html.CODE'>, 'CRYPT': <class 'gluon.validators.CRYPT'>, ...}, layer='/home/zhe/codes/awesomequiz/web2py/applications/init/models/db.py')"
p118
sS'func'
p119
S'restricted'
p120
sa(dp121
g97
S'/home/zhe/codes/awesomequiz/web2py/applications/init/models/db.py'
p122
sg99
(dp123
S'CLIENT_SECRET'
p124
S'undefined'
p125
sS'CLIENT_ID'
p126
g125
sS'fbappauth'
p127
g125
ssg105
I74
sg106
(dp128
I69
S''
sI70
S'import sys, os'
p129
sI71
S"path = os.path.join(request.folder, 'modules')"
p130
sI72
S'if not path in sys.path:'
p131
sI73
S'    sys.path.append(path)'
p132
sI74
S'from fbappauth import CLIENT_ID,CLIENT_SECRET'
p133
sI75
S'from facebook import GraphAPI, GraphAPIError'
p134
sI76
S'from gluon.contrib.login_methods.oauth20_account import OAuthAccount'
p135
sI77
S'class FaceBookAccount(OAuthAccount):'
p136
sI78
S'    """OAuth impl for FaceBook"""'
p137
ssg117
S'()'
p138
sg119
S'<module>'
p139
sasS'pyver'
p140
S'Python 2.6.5: /usr/bin/python'
p141
sS'session'
p142
(dp143
S'auth'
p144
S'None'
p145
ssS'etype'
p146
S"<type 'exceptions.ImportError'>"
p147
sS'date'
p148
S'Thu Nov  4 19:54:08 2010'
p149
sS'response'
p150
(dp151
S'status'
p152
S'200'
p153
sg59
S'<cStringIO.StringO object>'
p154
sg74
S"<SimpleCookie: session_id_init='127-0-0-1-2a98e4cb-d3ed-4f1f-9abb-00c746028439'>"
p155
sS'_vars'
p156
S'None'
p157
sS'menu'
p158
S'[]'
p159
sS'flash'
p160
S"''"
p161
sS'session_new'
p162
S'True'
p163
sS'_custom_rollback'
p164
S'None'
p165
sS'session_id'
p166
S"'127-0-0-1-2a98e4cb-d3ed-4f1f-9abb-00c746028439'"
p167
sS'headers'
p168
S"<Storage {'Expires': 'Thu, 04 Nov 2010 18:54:07 ...he, must-revalidate, post-check=0, pre-check=0'}>"
p169
sS'meta'
p170
S'<Storage {}>'
p171
sS'session_filename'
p172
S"'/home/zhe/codes/awesomequiz/web2py/applications/...ns/127-0-0-1-2a98e4cb-d3ed-4f1f-9abb-00c746028439'"
p173
sS'postprocessing'
p174
S'[]'
p175
sS'_caller'
p176
S'<function <lambda>>'
p177
sS'_view_environment'
p178
S"{'A': <class 'gluon.html.A'>, 'B': <class 'gluon.html.B'>, 'BEAUTIFY': <class 'gluon.html.BEAUTIFY'>, 'BODY': <class 'gluon.html.BODY'>, 'BR': <class 'gluon.html.BR'>, 'CENTER': <class 'gluon.html.CENTER'>, 'CLEANUP': <class 'gluon.validators.CLEANUP'>, 'CODE': <class 'gluon.html.CODE'>, 'CRYPT': <class 'gluon.validators.CRYPT'>, 'DAL': <function DAL>, ...}"
p179
sS'session_id_name'
p180
S"'session_id_init'"
p181
sS'_custom_commit'
p182
S'None'
p183
sS'files'
p184
S'[]'
p185
sS'view'
p186
S"'default/index.html'"
p187
ssS'locals'
p188
(dp189
S'Service'
p190
S'<class gluon.tools.Service>'
p191
sS'OBJECT'
p192
S"<class 'gluon.html.OBJECT'>"
p193
sS'SQLDB'
p194
S"<class 'gluon.sql.SQLDB'>"
p195
sg142
S"<Storage {'auth': None}>"
p196
sS'LINK'
p197
S"<class 'gluon.html.LINK'>"
p198
sS'BR'
p199
S"<class 'gluon.html.BR'>"
p200
sS'local_import'
p201
S'<function <lambda>>'
p202
sS'OPTGROUP'
p203
S"<class 'gluon.html.OPTGROUP'>"
p204
sS'PRE'
p205
S"<class 'gluon.html.PRE'>"
p206
sS'IS_INT_IN_RANGE'
p207
S"<class 'gluon.validators.IS_INT_IN_RANGE'>"
p208
sS'IS_LOWER'
p209
S"<class 'gluon.validators.IS_LOWER'>"
p210
sS'IS_STRONG'
p211
S"<class 'gluon.validators.IS_STRONG'>"
p212
sS'Recaptcha'
p213
S"<class 'gluon.tools.Recaptcha'>"
p214
sS'cache'
p215
S'<gluon.cache.Cache object>'
p216
sS'IS_IN_DB'
p217
S"<class 'gluon.validators.IS_IN_DB'>"
p218
sS'TAG'
p219
S'<gluon.html.__TAG__ object>'
p220
sS'SQLField'
p221
S"<class 'gluon.sql.Field'>"
p222
sS'mail'
p223
S'<gluon.tools.Mail object>'
p224
sS'BODY'
p225
S"<class 'gluon.html.BODY'>"
p226
sS'IS_DATE_IN_RANGE'
p227
S"<class 'gluon.validators.IS_DATE_IN_RANGE'>"
p228
sS'IFRAME'
p229
S"<class 'gluon.html.IFRAME'>"
p230
sS'URL'
p231
S'<function _URL>'
p232
sS'db'
p233
S"<SQLDB {'_connection': <sqlite3.Connection objec...0x999486c>}>, '_migrate': True, '_pool_size': 0}>"
p234
sg144
S'<gluon.tools.Auth object>'
p235
sS'P'
S"<class 'gluon.html.P'>"
p236
sS'TFOOT'
p237
S"<class 'gluon.html.TFOOT'>"
p238
sS'XHTML'
p239
S"<class 'gluon.html.XHTML'>"
p240
sS'ON'
p241
g163
sS'OL'
p242
S"<class 'gluon.html.OL'>"
p243
sS'TEXTAREA'
p244
S"<class 'gluon.html.TEXTAREA'>"
p245
sS'MENU'
p246
S"<class 'gluon.html.MENU'>"
p247
sS'EM'
p248
S"<class 'gluon.html.EM'>"
p249
sS'CODE'
p250
S"<class 'gluon.html.CODE'>"
p251
sS'HTTP'
p252
S"<class 'gluon.http.HTTP'>"
p253
sS'HR'
p254
S"<class 'gluon.html.HR'>"
p255
sS'IS_DATETIME'
p256
S"<class 'gluon.validators.IS_DATETIME'>"
p257
sS'STYLE'
p258
S"<class 'gluon.html.STYLE'>"
p259
sS'LABEL'
p260
S"<class 'gluon.html.LABEL'>"
p261
sS'META'
p262
S"<class 'gluon.html.META'>"
p263
sS'SELECT'
p264
S"<class 'gluon.html.SELECT'>"
p265
sS'CENTER'
p266
S"<class 'gluon.html.CENTER'>"
p267
sS'prettydate'
p268
S'<function prettydate>'
p269
sS'Crud'
p270
S"<class 'gluon.tools.Crud'>"
p271
sS'Auth'
p272
S"<class 'gluon.tools.Auth'>"
p273
sS'__builtins__'
p274
S"{'ArithmeticError': <type 'exceptions.ArithmeticError'>, 'AssertionError': <type 'exceptions.AssertionError'>, 'AttributeError': <type 'exceptions.AttributeError'>, 'BaseException': <type 'exceptions.BaseException'>, 'BufferError': <type 'exceptions.BufferError'>, 'BytesWarning': <type 'exceptions.BytesWarning'>, 'DeprecationWarning': <type 'exceptions.DeprecationWarning'>, 'EOFError': <type 'exceptions.EOFError'>, 'Ellipsis': Ellipsis, 'EnvironmentError': <type 'exceptions.EnvironmentError'>, ...}"
p275
sS'IS_LIST_OF'
p276
S"<class 'gluon.validators.IS_LIST_OF'>"
p277
sS'SQLFORM'
p278
S"<class 'gluon.sqlhtml.SQLFORM'>"
p279
sS'LOAD'
p280
S'<gluon.compileapp.LoadFactory instance>'
p281
sS'redirect'
p282
S'<function redirect>'
p283
sS'FIELDSET'
p284
S"<class 'gluon.html.FIELDSET'>"
p285
sS'IS_EQUAL_TO'
p286
S"<class 'gluon.validators.IS_EQUAL_TO'>"
p287
sS'embed64'
p288
S'<function embed64>'
p289
sS'INPUT'
p290
S"<class 'gluon.html.INPUT'>"
p291
sS'EMBED'
p292
S"<class 'gluon.html.EMBED'>"
p293
sS'FORM'
p294
S"<class 'gluon.html.FORM'>"
p295
sS'H2'
p296
S"<class 'gluon.html.H2'>"
p297
sS'H3'
p298
S"<class 'gluon.html.H3'>"
p299
sS'H1'
p300
S"<class 'gluon.html.H1'>"
p301
sS'H6'
p302
S"<class 'gluon.html.H6'>"
p303
sS'H4'
p304
S"<class 'gluon.html.H4'>"
p305
sS'H5'
p306
S"<class 'gluon.html.H5'>"
p307
sS'UL'
p308
S"<class 'gluon.html.UL'>"
p309
sS'IS_UPPER'
p310
S"<class 'gluon.validators.IS_UPPER'>"
p311
sS'xmlescape'
p312
S'<function xmlescape>'
p313
sS'IS_TIME'
p314
S"<class 'gluon.validators.IS_TIME'>"
p315
sS'os'
p316
S"<module 'os' from '/usr/lib/python2.6/os.pyc'>"
p317
sS'OPTION'
p318
S"<class 'gluon.html.OPTION'>"
p319
sS'TITLE'
p320
S"<class 'gluon.html.TITLE'>"
p321
sS'CRYPT'
p322
S"<class 'gluon.validators.CRYPT'>"
p323
sS'IS_EMPTY_OR'
p324
S"<class 'gluon.validators.IS_EMPTY_OR'>"
p325
sS'MARKMIN'
p326
S"<class 'gluon.html.MARKMIN'>"
p327
sS'path'
p328
S"'/home/zhe/codes/awesomequiz/web2py/applications/init/modules'"
p329
sS'auth_table'
p330
S"<Table {'username': <gluon.sql.Field object at 0...c>, 'id': <gluon.sql.Field object at 0x999486c>}>"
p331
sS'service'
p332
S'<gluon.tools.Service instance>'
p333
sS'SCRIPT'
p334
S"<class 'gluon.html.SCRIPT'>"
p335
sS'geocode'
p336
S'<function geocode>'
p337
sS'TABLE'
p338
S"<class 'gluon.html.TABLE'>"
p339
sS'IS_IPV4'
p340
S"<class 'gluon.validators.IS_IPV4'>"
p341
sS'IS_LENGTH'
p342
S"<class 'gluon.validators.IS_LENGTH'>"
p343
sS'XML'
p344
S"<class 'gluon.html.XML'>"
p345
sS'B'
S"<class 'gluon.html.B'>"
p346
sS'IMG'
p347
S"<class 'gluon.html.IMG'>"
p348
sS'SQLTABLE'
p349
S"<class 'gluon.sqlhtml.SQLTABLE'>"
p350
sS'IS_MATCH'
p351
S"<class 'gluon.validators.IS_MATCH'>"
p352
sS'IS_ALPHANUMERIC'
p353
S"<class 'gluon.validators.IS_ALPHANUMERIC'>"
p354
sS'SPAN'
p355
S"<class 'gluon.html.SPAN'>"
p356
sS'IS_SLUG'
p357
S"<class 'gluon.validators.IS_SLUG'>"
p358
sS'CLEANUP'
p359
S"<class 'gluon.validators.CLEANUP'>"
p360
sS'fetch'
p361
S'<function fetch>'
p362
sS'IS_DATE'
p363
S"<class 'gluon.validators.IS_DATE'>"
p364
sS'IS_EMAIL'
p365
S"<class 'gluon.validators.IS_EMAIL'>"
p366
sS'IS_NOT_EMPTY'
p367
S"<class 'gluon.validators.IS_NOT_EMPTY'>"
p368
sS'IS_FLOAT_IN_RANGE'
p369
S"<class 'gluon.validators.IS_FLOAT_IN_RANGE'>"
p370
sS'BEAUTIFY'
p371
S"<class 'gluon.html.BEAUTIFY'>"
p372
sS'TBODY'
p373
S"<class 'gluon.html.TBODY'>"
p374
sS'Field'
p375
S"<class 'gluon.sql.Field'>"
p376
sS'Mail'
p377
S"<class 'gluon.tools.Mail'>"
p378
sS'DIV'
p379
S"<class 'gluon.html.DIV'>"
p380
sS'LEGEND'
p381
S"<class 'gluon.html.LEGEND'>"
p382
sS'DAL'
p383
S'<function DAL>'
p384
sS'TT'
p385
S"<class 'gluon.html.TT'>"
p386
sS'TR'
p387
S"<class 'gluon.html.TR'>"
p388
sS'LI'
p389
S"<class 'gluon.html.LI'>"
p390
sS'TH'
p391
S"<class 'gluon.html.TH'>"
p392
sS'TD'
p393
S"<class 'gluon.html.TD'>"
p394
sS'PluginManager'
p395
S"<class 'gluon.tools.PluginManager'>"
p396
sS'IS_URL'
p397
S"<class 'gluon.validators.IS_URL'>"
p398
sS'A'
S"<class 'gluon.html.A'>"
p399
sS'HEAD'
p400
S"<class 'gluon.html.HEAD'>"
p401
sS'IS_DATETIME_IN_RANGE'
p402
S"<class 'gluon.validators.IS_DATETIME_IN_RANGE'>"
p403
sS'HTML'
p404
S"<class 'gluon.html.HTML'>"
p405
sS'IS_IMAGE'
p406
S"<class 'gluon.validators.IS_IMAGE'>"
p407
sS'I'
S"<class 'gluon.html.I'>"
p408
sS'crud'
p409
S'<gluon.tools.Crud object>'
p410
sS'sys'
p411
S"<module 'sys' (built-in)>"
p412
sS'IS_NOT_IN_DB'
p413
S"<class 'gluon.validators.IS_NOT_IN_DB'>"
p414
sg150
S"<Storage {'status': 200, 'body': <cStringIO.Stri...t': None, 'files': [], '_custom_rollback': None}>"
p415
sS'THEAD'
p416
S"<class 'gluon.html.THEAD'>"
p417
sS'IS_NULL_OR'
p418
S"<class 'gluon.validators.IS_EMPTY_OR'>"
p419
sg55
S"<Storage {'function': 'index', 'body': <cStringI...4, 19, 54, 7, 69975), 'post_vars': <Storage {}>}>"
p420
sS'IS_EXPR'
p421
S"<class 'gluon.validators.IS_EXPR'>"
p422
sS'IS_IN_SET'
p423
S"<class 'gluon.validators.IS_IN_SET'>"
p424
sS'IS_UPLOAD_FILENAME'
p425
S"<class 'gluon.validators.IS_UPLOAD_FILENAME'>"
p426
sS'IS_DECIMAL_IN_RANGE'
p427
S"<class 'gluon.validators.IS_DECIMAL_IN_RANGE'>"
p428
sS'T'
S'<gluon.languages.translator object>'
p429
sssS'traceback'
p430
S'Traceback (most recent call last):\n  File "/home/zhe/codes/awesomequiz/web2py/gluon/restricted.py", line 188, in restricted\n    exec ccode in environment\n  File "/home/zhe/codes/awesomequiz/web2py/applications/init/models/db.py", line 74, in <module>\n    from fbappauth import CLIENT_ID,CLIENT_SECRET\nImportError: No module named fbappauth\n'
p431
s.