(dp1
S'output'
p2
S''
sS'layer'
p3
S'/home/zhe/codes/awesomequiz/web2py/applications/init/controllers/graph.py'
p4
sS'code'
p5
S'# -*- coding: utf-8 -*-\nfrom facebook import GraphAPI, GraphAPIError\n\n@auth.requires_login()\ndef index():\n    user = auth.user\n    response.flash = T(\'You are %(name)s\', dict(name=user[\'first_name\']))\n    if  len(request.args) >= 2 and request.args[0] == \'id\':\n        fb_id = request.args[1]\n    else:\n        fb_id = \'me\'\n    \n    graph = getGraph()\n    try:\n        fb_obj = graph.get_object(fb_id, metadata=1)\n    except GraphAPIError, e:\n        response.flash = "%s [%s: %s]" % (T("Logging you out!"),__name__, e)\n        redirect(auth.url(f=\'user\', args=\'logout\'))\n    \n    response.menu = [[k, False, URL(r=request, f=\'connection\', args=[fb_id,k])] for k,v in  fb_obj[\'metadata\'][\'connections\'].items()]\n    return dict(message=T(\'You are at  %(fb_id)s\', dict(fb_id=fb_id)))\n\n@auth.requires_login()\ndef connection():\n    user = auth.user\n    if not len(request.args) >= 2:\n        return None\n    fb_id = request.args[0]\n    fb_connection_name = request.args[1]\n    try:\n        connections = getGraph().get_connections(fb_id, fb_connection_name)\n    except GraphAPIError, e:\n        response.flash = "%s [%s: %s]" % (T("Logging you out!"),__name__, e)\n        redirect(auth.url(f=\'user\', args=\'logout\'))\n\n    \n    response.menu=[[v[\'name\'], False, URL(r=request, f=\'index\', args=[\'id\', v[\'id\']])]  for v in connections[\'data\']]\n    return dict(message=T(\'Looking list of %(conn_name)s of %(id)s\', dict(conn_name=fb_connection_name, id=fb_id)))\n\n\nresponse._vars=response._caller(connection)\n'
p6
sS'snapshot'
p7
(dp8
S'exception'
p9
(dp10
S'__hash__'
p11
S"<method-wrapper '__hash__' of exceptions.KeyError object>"
p12
sS'__setattr__'
p13
S"<method-wrapper '__setattr__' of exceptions.KeyError object>"
p14
sS'__reduce_ex__'
p15
S'<built-in method __reduce_ex__ of exceptions.KeyError object>'
p16
sS'__getslice__'
p17
S"<method-wrapper '__getslice__' of exceptions.KeyError object>"
p18
sS'__getitem__'
p19
S"<method-wrapper '__getitem__' of exceptions.KeyError object>"
p20
sS'__setstate__'
p21
S'<built-in method __setstate__ of exceptions.KeyError object>'
p22
sS'__reduce__'
p23
S'<built-in method __reduce__ of exceptions.KeyError object>'
p24
sS'__str__'
p25
S"<method-wrapper '__str__' of exceptions.KeyError object>"
p26
sS'__format__'
p27
S'<built-in method __format__ of exceptions.KeyError object>'
p28
sS'__getattribute__'
p29
S"<method-wrapper '__getattribute__' of exceptions.KeyError object>"
p30
sS'__class__'
p31
S"<type 'exceptions.KeyError'>"
p32
sS'__unicode__'
p33
S'<built-in method __unicode__ of exceptions.KeyError object>'
p34
sS'__delattr__'
p35
S"<method-wrapper '__delattr__' of exceptions.KeyError object>"
p36
sS'__subclasshook__'
p37
S'<built-in method __subclasshook__ of type object>'
p38
sS'__repr__'
p39
S"<method-wrapper '__repr__' of exceptions.KeyError object>"
p40
sS'args'
p41
S"('name',)"
p42
sS'__dict__'
p43
S'{}'
p44
sS'__sizeof__'
p45
S'<built-in method __sizeof__ of exceptions.KeyError object>'
p46
sS'__doc__'
p47
S"'Mapping key not found.'"
p48
sS'__init__'
p49
S"<method-wrapper '__init__' of exceptions.KeyError object>"
p50
sS'__new__'
p51
S'<built-in method __new__ of type object>'
p52
ssS'evalue'
p53
S"'name'"
p54
sS'request'
p55
(dp56
S'function'
p57
S"'connection'"
p58
sS'body'
p59
S'<cStringIO.StringO object>'
p60
sS'wsgi'
p61
S"<Storage {'start_response': <function <lambda> a...>, 'HTTP_ACCEPT_ENCODING': 'gzip,deflate,sdch'}}>"
p62
sS'extension'
p63
S"'html'"
p64
sS'vars'
p65
S'<Storage {}>'
p66
sS'cid'
p67
S'None'
p68
sS'url'
p69
S'<gluon.html.XML object>'
p70
sg41
S"['me', 'feed']"
p71
sS'controller'
p72
S"'graph'"
p73
sS'cookies'
p74
S"<SimpleCookie: session_id_admin='127-0-0-1-31af8...'127-0-0-1-b8c384f0-1121-4f7a-a646-363ab8bd55f9'>"
p75
sS'application'
p76
S"'init'"
p77
sS'ajax'
p78
S'False'
p79
sS'client'
p80
S"'127.0.0.1'"
p81
sS'env'
p82
S"<Storage {'http_user_agent': 'Mozilla/5.0 (X11; ...ch', 'query_string': '', 'wsgi_run_once': False}>"
p83
sS'raw_args'
p84
S"'me/feed'"
p85
sS'get_vars'
p86
S'<Storage {}>'
p87
sS'folder'
p88
S"'/home/zhe/codes/awesomequiz/web2py/applications/init/'"
p89
sS'now'
p90
S'datetime.datetime(2010, 11, 4, 22, 14, 6, 257416)'
p91
sS'post_vars'
p92
S'<Storage {}>'
p93
ssS'frames'
p94
(lp95
(dp96
S'file'
p97
S'/home/zhe/codes/awesomequiz/web2py/gluon/restricted.py'
p98
sS'dump'
p99
(dp100
S'environment'
p101
S"{'A': <class 'gluon.html.A'>, 'Auth': <class 'gluon.tools.Auth'>, 'B': <class 'gluon.html.B'>, 'BEAUTIFY': <class 'gluon.html.BEAUTIFY'>, 'BODY': <class 'gluon.html.BODY'>, 'BR': <class 'gluon.html.BR'>, 'CENTER': <class 'gluon.html.CENTER'>, 'CLEANUP': <class 'gluon.validators.CLEANUP'>, 'CLIENT_ID': '171657759516876', 'CLIENT_SECRET': '1ab56c84a1d338972c8786e49eaa7247', ...}"
p102
sS'ccode'
p103
S'<code object <module> at 0xa7950b0, file "/home/.../applications/init/controllers/graph.py", line 2>'
p104
ssS'lnum'
p105
I188
sS'lines'
p106
(dp107
I192
S'        # XXX Show exception in Wing IDE if running in debugger'
p108
sI183
S'        if type(code) == types.CodeType:'
p109
sI184
S'            ccode = code'
p110
sI185
S'        else:'
p111
sI186
S'            ccode = compile2(code,layer)'
p112
sI187
S''
sI188
S'        exec ccode in environment'
p113
sI189
S'    except HTTP:'
p114
sI190
S'        raise'
p115
sI191
S'    except Exception:'
p116
ssS'call'
p117
S"(code='# -*- coding: utf-8 -*-\\nfrom facebook import Gra...))\\n\\n\\nresponse._vars=response._caller(connection)\\n', environment={'A': <class 'gluon.html.A'>, 'Auth': <class 'gluon.tools.Auth'>, 'B': <class 'gluon.html.B'>, 'BEAUTIFY': <class 'gluon.html.BEAUTIFY'>, 'BODY': <class 'gluon.html.BODY'>, 'BR': <class 'gluon.html.BR'>, 'CENTER': <class 'gluon.html.CENTER'>, 'CLEANUP': <class 'gluon.validators.CLEANUP'>, 'CLIENT_ID': '171657759516876', 'CLIENT_SECRET': '1ab56c84a1d338972c8786e49eaa7247', ...}, layer='/home/zhe/codes/awesomequiz/web2py/applications/init/controllers/graph.py')"
p118
sS'func'
p119
S'restricted'
p120
sa(dp121
g97
S'/home/zhe/codes/awesomequiz/web2py/applications/init/controllers/graph.py'
p122
sg99
(dp123
sg105
I41
sg106
(dp124
I32
S'    except GraphAPIError, e:'
p125
sI33
S'        response.flash = "%s [%s: %s]" % (T("Logging you out!"),__name__, e)'
p126
sI34
S"        redirect(auth.url(f='user', args='logout'))"
p127
sI35
S''
sI36
S''
sI37
S"    response.menu=[[v['name'], False, URL(r=request, f='index', args=['id', v['id']])]  for v in connections['data']]"
p128
sI38
S"    return dict(message=T('Looking list of %(conn_name)s of %(id)s', dict(conn_name=fb_connection_name, id=fb_id)))"
p129
sI39
S''
sI30
S'    try:'
p130
sI31
S'        connections = getGraph().get_connections(fb_id, fb_connection_name)'
p131
ssg117
S'()'
p132
sg119
S'<module>'
p133
sa(dp134
g97
S'/home/zhe/codes/awesomequiz/web2py/gluon/globals.py'
p135
sg99
(dp136
S'self'
p137
S'undefined'
p138
sS'f'
S'<function connection>'
p139
ssg105
I96
sg106
(dp140
I96
S'        self._caller = lambda f: f()'
p141
sI97
S'        self._view_environment = None'
p142
sI98
S'        self._custom_commit = None'
p143
sI99
S'        self._custom_rollback = None'
p144
sI100
S''
sI91
S"        self.flash = ''           # used by the default view layout"
p145
sI92
S'        self.meta = Storage()     # used by web2py_ajax.html'
p146
sI93
S'        self.menu = []            # used by the default view layout'
p147
sI94
S'        self.files = []           # used by web2py_ajax.html'
p148
sI95
S'        self._vars = None'
p149
ssg117
S'(f=<function connection>)'
p150
sg119
S'<lambda>'
p151
sa(dp152
g97
S'/home/zhe/codes/awesomequiz/web2py/gluon/tools.py'
p153
sg99
(dp154
S'action'
p155
S'<function connection>'
p156
sS'a'
S'()'
p157
sS'b'
g44
ssg105
I2270
sg106
(dp158
I2272
S'            f.__name__ = action.__name__'
p159
sI2273
S'            f.__dict__.update(action.__dict__)'
p160
sI2274
S'            return f'
p161
sI2265
S'                               vars=request.get_vars)'
p162
sI2266
S'                    return call_or_redirect(self.settings.on_failed_authentication,'
p163
sI2267
S'                                            self.settings.login_url + \\'
p164
sI2268
S"                                                '?_next='+urllib.quote(next)"
p165
sI2269
S'                                            )'
p166
sI2270
S'                return action(*a, **b)'
p167
sI2271
S'            f.__doc__ = action.__doc__'
p168
ssg117
S'(*a=(), **b={})'
p169
sg119
S'f'
sa(dp170
g97
S'/home/zhe/codes/awesomequiz/web2py/applications/init/controllers/graph.py'
p171
sg99
(dp172
S'response.menu'
p173
S"[[<lazyT 'Index'>, False, <gluon.html.XML object>, []]]"
p174
sS'builtinFalse'
p175
g79
sS'f'
g138
sS'global request'
p176
S"<Storage {'function': 'connection', 'body': <cSt..., 22, 14, 6, 257416), 'post_vars': <Storage {}>}>"
p177
sS'connections'
p178
S'{u\'data\': [{u\'attribution\': u\'Program Awesome\', u\'caption\': u\'blog.systemsthoughts.com\', u\'created_time\': u\'2010-11-04T21:09:32+0000\', u\'description\': u\'Test posting stuff on facebook stream\', u\'from\': {u\'id\': u\'326200042\', u\'name\': u\'Zhe Li\'}, u\'icon\': u\'http://photos-a.ak.fbcdn.net/photos-ak-snc1/v2...8/171657759516876/app_2_171657759516876_4085.gif\', u\'id\': u\'326200042_502910060313\', u\'link\': u\'http://blog.systemsthoughts.com/\', u\'message\': u\'Awesome blog!\', u\'name\': u\'Systems Thoughts\', ...}, {u\'attribution\': u\'Program Awesome\', u\'caption\': u\'blog.systemsthoughts.com\', u\'created_time\': u\'2010-11-04T21:06:11+0000\', u\'description\': u\'Test posting stuff on facebook stream\', u\'from\': {u\'id\': u\'326200042\', u\'name\': u\'Zhe Li\'}, u\'icon\': u\'http://photos-a.ak.fbcdn.net/photos-ak-snc1/v2...8/171657759516876/app_2_171657759516876_4085.gif\', u\'id\': u\'326200042_502910050333\', u\'link\': u\'http://blog.systemsthoughts.com/\', u\'message\': u\'Awesome blog!\', u\'name\': u\'Systems Thoughts\', ...}, {u\'attribution\': u\'Program Awesome\', u\'caption\': u\'blog.systemsthoughts.com\', u\'created_time\': u\'2010-11-04T21:04:26+0000\', u\'description\': u\'Today I spent the entire morning dealing with ...ved the STAF problems, my vmrun stopped wokring.\', u\'from\': {u\'id\': u\'326200042\', u\'name\': u\'Zhe Li\'}, u\'icon\': u\'http://photos-a.ak.fbcdn.net/photos-ak-snc1/v2...8/171657759516876/app_2_171657759516876_4085.gif\', u\'id\': u\'326200042_502910025383\', u\'link\': u\'http://blog.systemsthoughts.com/\', u\'message\': u\'Awesome blog!\', u\'name\': u\'Systems Thoughts\', ...}, {u\'attribution\': u\'Program Awesome\', u\'created_time\': u\'2010-11-04T20:58:02+0000\', u\'from\': {u\'id\': u\'326200042\', u\'name\': u\'Zhe Li\'}, u\'id\': u\'326200042_122207431171759\', u\'message\': u\'This is so awesome!\', u\'type\': u\'status\', u\'updated_time\': u\'2010-11-04T20:58:02+0000\'}, {u\'created_time\': u\'2010-11-03T22:16:11+0000\', u\'from\': {u\'id\': u\'326200042\', u\'name\': u\'Zhe Li\'}, u\'icon\': u\'http://b.static.ak.fbcdn.net/rsrc.php/zD/r/aS8ecmYRys0.gif\', u\'id\': u\'326200042_159704710735116\', u\'likes\': 1, u\'link\': u\'http://www.facebook.com/pages/Tiananmen-Square-protests-of-1989/112857855399810\', u\'message\': u\'at least not to forget the real history.\', u\'name\': u\'Tiananmen Square protests of 1989\', u\'picture\': u\'http://external.ak.fbcdn.net/safe_image.php?d=...d%2Fd8%2FTianasquare.jpg%2F720px-Tianasquare.jpg\', u\'properties\': [{u\'name\': u\'sida\', u\'text\': u\'82 personer gillar detta.\'}], ...}, {u\'caption\': u\'blog.systemsthoughts.com\', u\'created_time\': u\'2010-11-03T10:15:01+0000\', u\'description\': u\'\\u53ef\\u4ee5\\u7528\\u8c46\\u74e3\\u767b\\u5f55\\u66...\\u65b9\\u5f0f\\u6574\\u5408\\u4e3a\\u4e00\\u79cd\\u3002\', u\'from\': {u\'id\': u\'326200042\', u\'name\': u\'Zhe Li\'}, u\'icon\': u\'http://b.static.ak.fbcdn.net/rsrc.php/zD/r/aS8ecmYRys0.gif\', u\'id\': u\'326200042_162716587095386\', u\'link\': u\'http://blog.systemsthoughts.com/2010/11/\\u7528...2web2py\\u4e2d\\u7684\\u767b\\u5165\\u673a\\u5236.html\', u\'name\': u\'\\u7528\\u8c46\\u74e3OAuth\\u8ba4\\u8bc1\\u66ff\\u636...u7684\\u767b\\u5165\\u673a\\u5236 | Systems Thoughts\', u\'type\': u\'link\', u\'updated_time\': u\'2010-11-03T10:15:01+0000\'}, {u\'caption\': u\'\\u4e0b\\u9762\\u9019\\u5f35\\u662f\\u54ea\\u9580\\u5b.../business_growth/data/new_businesses_established\', u\'created_time\': u\'2010-11-03T10:04:52+0000\', u\'from\': {u\'id\': u\'326200042\', u\'name\': u\'Zhe Li\'}, u\'icon\': u\'http://b.static.ak.fbcdn.net/rsrc.php/zD/r/aS8ecmYRys0.gif\', u\'id\': u\'326200042_171144592898089\', u\'link\': u\'http://www.facebook.com/photo.php?fbid=456212052499&set=a.119137517499.100765.5981562499\', u\'name\': u\'Loggfoton\', u\'picture\': u\'http://photos-h.ak.fbcdn.net/hphotos-ak-snc4/h...29_456212052499_5981562499_5327081_2657990_s.jpg\', u\'properties\': [{u\'href\': u\'http://www.facebook.com/mr6.cc\', u\'name\': u\'Tillh\\xf6rande\', u\'text\': u\'Mr. 6\'}], u\'type\': u\'photo\', ...}, {u\'caption\': u\'usesthis.com\', u\'created_time\': u\'2010-11-03T10:04:24+0000\', u\'description\': u"This is a waferbaby snafu. Follow us on Twitte...ailable via the Attribution-Share Alike license.", u\'from\': {u\'id\': u\'326200042\', u\'name\': u\'Zhe Li\'}, u\'icon\': u\'http://b.static.ak.fbcdn.net/rsrc.php/zD/r/aS8ecmYRys0.gif\', u\'id\': u\'326200042_158589937513112\', u\'link\': u\'http://usesthis.com/\', u\'message\': u\'http://usesthis.com/\', u\'name\': u\'The Setup\', u\'picture\': u\'http://external.ak.fbcdn.net/safe_image.php?d=...sthis.com%2Fimages%2Ficons%2Fkeita.takahashi.jpg\', ...}, {u\'caption\': u\'nitish1987.blogspot.com\', u\'created_time\': u\'2010-11-03T09:03:11+0000\', u\'description\': u\'Probably time to move out of your house if you... you can even store your own personal car in it.\', u\'from\': {u\'id\': u\'326200042\', u\'name\': u\'Zhe Li\'}, u\'icon\': u\'http://b.static.ak.fbcdn.net/rsrc.php/zD/r/aS8ecmYRys0.gif\', u\'id\': u\'326200042_115230778539645\', u\'link\': u\'http://nitish1987.blogspot.com/2010/03/luxury-bus-way-better-than-your-home.html\', u\'message\': u\'http://nitish1987.blogspot.com/2010/03/luxury-bus-way-better-than-your-home.html\', u\'name\': u\'Luxury Bus Way Better Than Your Home | Most amazing and funny things in the world\', u\'picture\': u\'http://external.ak.fbcdn.net/safe_image.php?d=...F%2Fwww.hemmy.net%2Fimages%2Fcar%2Fcoolbus01.jpg\', ...}, {u\'attribution\': u\'Instagram\', u\'caption\': u\'instagr.am\', u\'created_time\': u\'2010-11-02T20:23:48+0000\', u\'from\': {u\'id\': u\'326200042\', u\'name\': u\'Zhe Li\'}, u\'icon\': u\'http://photos-e.ak.fbcdn.net/photos-ak-snc1/v2...0/124024574287414/app_2_124024574287414_6936.gif\', u\'id\': u\'326200042_502908573293\', u\'likes\': 1, u\'link\': u\'http://instagr.am/p/IfHa/\', u\'message\': u\'Yum yum :)\', u\'name\': u\'http://instagr.am/p/IfHa/\', ...}, {u\'caption\': u\'www.whatthefuckshouldimakefordinner.com\', u\'comments\': {u\'count\': 4, u\'data\': [{u\'created_time\': u\'2010-11-02T15:02:51+0000\', u\'from\': {...}, u\'id\': u\'326200042_128598260527373_808121\', u\'message\': u"I got \'BRAISED OX TONGUE\', yumyum :DD"}]}, u\'created_time\': u\'2010-11-02T10:11:51+0000\', u\'description\': u\'What the fuck should you make for dinner? We will provide your indecisive self with some ideas.\', u\'from\': {u\'id\': u\'326200042\', u\'name\': u\'Zhe Li\'}, u\'icon\': u\'http://b.static.ak.fbcdn.net/rsrc.php/zD/r/aS8ecmYRys0.gif\', u\'id\': u\'326200042_128598260527373\', u\'link\': u\'http://www.whatthefuckshouldimakefordinner.com/\', u\'message\': u\'Just fucking try it.\', u\'name\': u\'What the Fuck Should I Make For Dinner\', ...}, {u\'attribution\': u\'Instagram\', u\'caption\': u\'instagr.am\', u\'created_time\': u\'2010-11-01T22:33:54+0000\', u\'from\': {u\'id\': u\'326200042\', u\'name\': u\'Zhe Li\'}, u\'icon\': u\'http://photos-e.ak.fbcdn.net/photos-ak-snc1/v2...0/124024574287414/app_2_124024574287414_6936.gif\', u\'id\': u\'326200042_502907171103\', u\'likes\': 1, u\'link\': u\'http://instagr.am/p/H_qQ/\', u\'message\': u\'JJ\', u\'name\': u\'http://instagr.am/p/H_qQ/\', ...}, {u\'attribution\': u\'Instagram\', u\'caption\': u\'instagr.am\', u\'created_time\': u\'2010-10-30T08:52:34+0000\', u\'from\': {u\'id\': u\'326200042\', u\'name\': u\'Zhe Li\'}, u\'icon\': u\'http://photos-e.ak.fbcdn.net/photos-ak-snc1/v2...0/124024574287414/app_2_124024574287414_6936.gif\', u\'id\': u\'326200042_502904351753\', u\'likes\': 2, u\'link\': u\'http://instagr.am/p/Gi4b/\', u\'message\': u\'Sleep heads\', u\'name\': u\'http://instagr.am/p/Gi4b/\', ...}, {u\'created_time\': u\'2010-10-29T19:29:00+0000\', u\'from\': {u\'id\': u\'326200042\', u\'name\': u\'Zhe Li\'}, u\'icon\': u\'http://b.static.ak.fbcdn.net/rsrc.php/zD/r/aS8ecmYRys0.gif\', u\'id\': u\'326200042_145273045519131\', u\'likes\': 1, u\'link\': u\'http://www.facebook.com/pages/Jing-Jing/108371469228120\', u\'name\': u\'Jing Jing\', u\'picture\': u\'http://profile.ak.fbcdn.net/hprofile-ak-snc4/hs458.snc4/50553_108371469228120_483555_n.jpg\', u\'properties\': [{u\'name\': u\'sida\', u\'text\': u\'En person gillar detta.\'}], u\'type\': u\'link\', ...}, {u\'created_time\': u\'2010-10-29T19:16:25+0000\', u\'from\': {u\'id\': u\'326200042\', u\'name\': u\'Zhe Li\'}, u\'icon\': u\'http://b.static.ak.fbcdn.net/rsrc.php/zD/r/aS8ecmYRys0.gif\', u\'id\': u\'326200042_171175659561166\', u\'link\': u\'http://www.facebook.com/http%3A%2F%2Ffbshare.me%2FAW3iB\', u\'name\': u\'\\u82ac\\u5170 MindTrek LaunchPad \\u5927\\u8d5b\\u5f97\\u5956\\u4ea7\\u54c1\\u4ecb\\u7ecd\', u\'type\': u\'link\', u\'updated_time\': u\'2010-10-29T19:16:25+0000\'}, {u\'attribution\': u\'Dropbox\', u\'caption\': u\'db.tt\', u\'created_time\': u\'2010-10-28T09:53:29+0000\', u\'description\': u"Safely and seamlessly sync your files with Dro...ay to share your files and access them anywhere.", u\'from\': {u\'id\': u\'326200042\', u\'name\': u\'Zhe Li\'}, u\'icon\': u\'http://photos-b.ak.fbcdn.net/photos-ak-snc1/v43/178/210019893730/app_2_210019893730_1514.gif\', u\'id\': u\'326200042_502902744973\', u\'likes\': 1, u\'link\': u\'http://db.tt/I2bGCG6\', u\'message\': u\'Dropbox. It goes to 11. \', ...}, {u\'caption\': u\'apps.facebook.com\', u\'created_time\': u\'2010-10-27T15:32:47+0000\', u\'description\': u\'Blablablablabla\', u\'from\': {u\'id\': u\'326200042\', u\'name\': u\'Zhe Li\'}, u\'icon\': u\'http://b.static.ak.fbcdn.net/rsrc.php/zD/r/aS8ecmYRys0.gif\', u\'id\': u\'326200042_173390489338072\', u\'link\': u\'http://apps.facebook.com/mavericklab/\', u\'message\': u\'Testing testing\\nhttp://apps.facebook.com/mavericklab/\', u\'name\': u\'Blablabla\', u\'picture\': u\'http://external.ak.fbcdn.net/safe_image.php?d=...A%2F%2Fimg3.douban.com%2Ficon%2Ful1146040-43.jpg\', ...}, {u\'caption\': u\'weburbanist.com\', u\'created_time\': u\'2010-10-26T12:01:35+0000\', u\'description\': u"Fancy computer programs aren\'t always necessar... - sometimes all you need is forced perspective.", u\'from\': {u\'id\': u\'326200042\', u\'name\': u\'Zhe Li\'}, u\'icon\': u\'http://b.static.ak.fbcdn.net/rsrc.php/zD/r/aS8ecmYRys0.gif\', u\'id\': u\'326200042_160065620700548\', u\'likes\': 1, u\'link\': u\'http://weburbanist.com/2010/10/25/fauxtoshop-15-phenomenal-forced-perspective-photos/\', u\'name\': u\'Fauxtoshop: 15 Phenomenal Forced-Perspective Photos  : WebUrbanist\', u\'picture\': u\'http://external.ak.fbcdn.net/safe_image.php?d=...2010%2F10%2Fforced-perspective-leaning-tower.jpg\', ...}, {u\'caption\': u\'www.youtube.com\', u\'created_time\': u\'2010-10-22T08:16:30+0000\', u\'description\': u\'\\u52a8\\u753b\\u5b66\\u966207\\u7ea7\\u5927\\u4e09\\u...com.cn/summerwack  my email:summerwack@gmail.com\', u\'from\': {u\'id\': u\'326200042\', u\'name\': u\'Zhe Li\'}, u\'icon\': u\'http://static.ak.fbcdn.net/rsrc.php/zj/r/v2OnaTyTQZE.gif\', u\'id\': u\'326200042_142667375779157\', u\'likes\': 1, u\'link\': u\'http://www.youtube.com/watch?v=aEP8ylQGIrY\', u\'message\': u\'homework from a Chinese art student\', u\'name\': u\'THE RED \\u300a\\u7ea2\\u9886\\u5dfe\\u4fa0\\u300b\', ...}, {u\'caption\': u\'open.spotify.com\', u\'created_time\': u\'2010-10-21T12:21:02+0000\', u\'description\': u"This is a link to Mah N\\xe0 Mah N\\xe0 (Album V...om \\u2013 it\'s free and no invitation is needed!", u\'from\': {u\'id\': u\'326200042\', u\'name\': u\'Zhe Li\'}, u\'icon\': u\'http://b.static.ak.fbcdn.net/rsrc.php/z0/r/nAApRnfWfNW.gif\', u\'id\': u\'326200042_163729870312359\', u\'link\': u\'http://open.spotify.com/track/3epemJNMYSXOsTvGr6fZKa\', u\'message\': u\':D\\nhttp://open.spotify.com/track/3epemJNMYSXOsTvGr6fZKa\', u\'name\': u\'Mah N\\xe0 Mah N\\xe0 (Album Version) - Piero Umiliani\', u\'picture\': u\'http://external.ak.fbcdn.net/safe_image.php?d=...thumb%2F8a19aa06f7b080f6696b2240cbf8d9eefdaecbb1\', ...}, ...], u\'paging\': {u\'next\': u\'https://graph.facebook.com/326200042/feed?acce...Sc&limit=25&until=2010-10-17T17%3A09%3A44%2B0000\', u\'previous\': u\'https://graph.facebook.com/326200042/feed?acce...Sc&limit=25&since=2010-11-04T21%3A09%3A32%2B0000\'}}'
p179
sS'args'
p180
g138
sS'global URL'
p181
S'<function _URL>'
p182
sS'r'
g138
sS'global response'
p183
S"<Storage {'body': <cStringIO.StringO object at 0... at 0xa589d14>, 'view': 'graph/connection.html'}>"
p184
sS'v'
S"{u'attribution': u'Program Awesome', u'created_time': u'2010-11-04T20:58:02+0000', u'from': {u'id': u'326200042', u'name': u'Zhe Li'}, u'id': u'326200042_122207431171759', u'message': u'This is so awesome!', u'type': u'status', u'updated_time': u'2010-11-04T20:58:02+0000'}"
p185
ssg105
I37
sg106
(dp186
I32
S'    except GraphAPIError, e:'
p187
sI33
S'        response.flash = "%s [%s: %s]" % (T("Logging you out!"),__name__, e)'
p188
sI34
S"        redirect(auth.url(f='user', args='logout'))"
p189
sI35
S''
sI36
S''
sI37
S"    response.menu=[[v['name'], False, URL(r=request, f='index', args=['id', v['id']])]  for v in connections['data']]"
p190
sI38
S"    return dict(message=T('Looking list of %(conn_name)s of %(id)s', dict(conn_name=fb_connection_name, id=fb_id)))"
p191
sI39
S''
sI30
S'    try:'
p192
sI31
S'        connections = getGraph().get_connections(fb_id, fb_connection_name)'
p193
ssg117
S'()'
p194
sg119
S'connection'
p195
sasS'pyver'
p196
S'Python 2.6.5: /usr/bin/python'
p197
sS'session'
p198
(dp199
S'token'
p200
S"{'access_token': '171657759516876|2.J8_o6ahJEjK3tDqonX5ELQ__.3600.1288911600-326200042|uag7K3b7_mqg1Nv7ARqtBVBUNSc', 'expires': '6367'}"
p201
sS'flash'
p202
S'None'
p203
sS'auth'
p204
S"<Storage {'expiration': 3600, 'user': <Storage {...0, 11, 4, 22, 14, 6, 257416), 'remember': False}>"
p205
sS'redirect_uri'
p206
S"'http://localhost:8000/init/default/user/login?_next=%2Finit%2Fdefault%2Findex'"
p207
ssS'etype'
p208
S"<type 'exceptions.KeyError'>"
p209
sS'date'
p210
S'Thu Nov  4 22:14:08 2010'
p211
sS'response'
p212
(dp213
S'_vars'
p214
S'None'
p215
sg74
S"<SimpleCookie: session_id_init='127-0-0-1-5004038d-cc3f-4ae6-8da6-c286ef798c71'>"
p216
sS'subtitle'
p217
S"<lazyT 'customize me!'>"
p218
sS'meta'
p219
S'<Storage {}>'
p220
sS'_view_environment'
p221
S"{'A': <class 'gluon.html.A'>, 'Auth': <class 'gluon.tools.Auth'>, 'B': <class 'gluon.html.B'>, 'BEAUTIFY': <class 'gluon.html.BEAUTIFY'>, 'BODY': <class 'gluon.html.BODY'>, 'BR': <class 'gluon.html.BR'>, 'CENTER': <class 'gluon.html.CENTER'>, 'CLEANUP': <class 'gluon.validators.CLEANUP'>, 'CLIENT_ID': '171657759516876', 'CLIENT_SECRET': '1ab56c84a1d338972c8786e49eaa7247', ...}"
p222
sS'files'
p223
S'[]'
p224
sS'title'
p225
S"'init'"
p226
sS'_caller'
p227
S'<function <lambda>>'
p228
sS'flash'
p229
S"''"
p230
sS'session_id_name'
p231
S"'session_id_init'"
p232
sS'_custom_commit'
p233
S'None'
p234
sS'session_filename'
p235
S"'/home/zhe/codes/awesomequiz/web2py/applications/...ns/127-0-0-1-5004038d-cc3f-4ae6-8da6-c286ef798c71'"
p236
sS'menu_edit'
p237
S"[[<lazyT 'Edit'>, False, <gluon.html.XML object>, [[<lazyT 'Controller'>, False, <gluon.html.XML object>], [<lazyT 'View'>, False, <gluon.html.XML object>], [<lazyT 'Layout'>, False, <gluon.html.XML object>], [<lazyT 'Stylesheet'>, False, <gluon.html.XML object>], [<lazyT 'DB Model'>, False, <gluon.html.XML object>], [<lazyT 'Menu Model'>, False, <gluon.html.XML object>], [<lazyT 'Database'>, False, <gluon.html.XML object>]]]]"
p238
sg59
S'<cStringIO.StringO object>'
p239
sS'session_file'
p240
S"<open file '/home/zhe/codes/awesomequiz/web2py/a...004038d-cc3f-4ae6-8da6-c286ef798c71', mode 'rb+'>"
p241
sS'_custom_rollback'
p242
S'None'
p243
sS'session_id'
p244
S"'127-0-0-1-5004038d-cc3f-4ae6-8da6-c286ef798c71'"
p245
sS'headers'
p246
S"<Storage {'Expires': 'Thu, 04 Nov 2010 21:14:06 ...he, must-revalidate, post-check=0, pre-check=0'}>"
p247
sS'status'
p248
S'200'
p249
sS'postprocessing'
p250
S'[]'
p251
sS'menu'
p252
S"[[<lazyT 'Index'>, False, <gluon.html.XML object>, []]]"
p253
sS'view'
p254
S"'graph/connection.html'"
p255
ssS'locals'
p256
(dp257
S'_[1]'
p258
S"[[u'Systems Thoughts', False, <gluon.html.XML object>], [u'Systems Thoughts', False, <gluon.html.XML object>], [u'Systems Thoughts', False, <gluon.html.XML object>]]"
p259
sS'fb_connection_name'
p260
S"'feed'"
p261
sS'fb_id'
p262
S"'me'"
p263
sS'connections'
p264
S'{u\'data\': [{u\'attribution\': u\'Program Awesome\', u\'caption\': u\'blog.systemsthoughts.com\', u\'created_time\': u\'2010-11-04T21:09:32+0000\', u\'description\': u\'Test posting stuff on facebook stream\', u\'from\': {u\'id\': u\'326200042\', u\'name\': u\'Zhe Li\'}, u\'icon\': u\'http://photos-a.ak.fbcdn.net/photos-ak-snc1/v2...8/171657759516876/app_2_171657759516876_4085.gif\', u\'id\': u\'326200042_502910060313\', u\'link\': u\'http://blog.systemsthoughts.com/\', u\'message\': u\'Awesome blog!\', u\'name\': u\'Systems Thoughts\', ...}, {u\'attribution\': u\'Program Awesome\', u\'caption\': u\'blog.systemsthoughts.com\', u\'created_time\': u\'2010-11-04T21:06:11+0000\', u\'description\': u\'Test posting stuff on facebook stream\', u\'from\': {u\'id\': u\'326200042\', u\'name\': u\'Zhe Li\'}, u\'icon\': u\'http://photos-a.ak.fbcdn.net/photos-ak-snc1/v2...8/171657759516876/app_2_171657759516876_4085.gif\', u\'id\': u\'326200042_502910050333\', u\'link\': u\'http://blog.systemsthoughts.com/\', u\'message\': u\'Awesome blog!\', u\'name\': u\'Systems Thoughts\', ...}, {u\'attribution\': u\'Program Awesome\', u\'caption\': u\'blog.systemsthoughts.com\', u\'created_time\': u\'2010-11-04T21:04:26+0000\', u\'description\': u\'Today I spent the entire morning dealing with ...ved the STAF problems, my vmrun stopped wokring.\', u\'from\': {u\'id\': u\'326200042\', u\'name\': u\'Zhe Li\'}, u\'icon\': u\'http://photos-a.ak.fbcdn.net/photos-ak-snc1/v2...8/171657759516876/app_2_171657759516876_4085.gif\', u\'id\': u\'326200042_502910025383\', u\'link\': u\'http://blog.systemsthoughts.com/\', u\'message\': u\'Awesome blog!\', u\'name\': u\'Systems Thoughts\', ...}, {u\'attribution\': u\'Program Awesome\', u\'created_time\': u\'2010-11-04T20:58:02+0000\', u\'from\': {u\'id\': u\'326200042\', u\'name\': u\'Zhe Li\'}, u\'id\': u\'326200042_122207431171759\', u\'message\': u\'This is so awesome!\', u\'type\': u\'status\', u\'updated_time\': u\'2010-11-04T20:58:02+0000\'}, {u\'created_time\': u\'2010-11-03T22:16:11+0000\', u\'from\': {u\'id\': u\'326200042\', u\'name\': u\'Zhe Li\'}, u\'icon\': u\'http://b.static.ak.fbcdn.net/rsrc.php/zD/r/aS8ecmYRys0.gif\', u\'id\': u\'326200042_159704710735116\', u\'likes\': 1, u\'link\': u\'http://www.facebook.com/pages/Tiananmen-Square-protests-of-1989/112857855399810\', u\'message\': u\'at least not to forget the real history.\', u\'name\': u\'Tiananmen Square protests of 1989\', u\'picture\': u\'http://external.ak.fbcdn.net/safe_image.php?d=...d%2Fd8%2FTianasquare.jpg%2F720px-Tianasquare.jpg\', u\'properties\': [{u\'name\': u\'sida\', u\'text\': u\'82 personer gillar detta.\'}], ...}, {u\'caption\': u\'blog.systemsthoughts.com\', u\'created_time\': u\'2010-11-03T10:15:01+0000\', u\'description\': u\'\\u53ef\\u4ee5\\u7528\\u8c46\\u74e3\\u767b\\u5f55\\u66...\\u65b9\\u5f0f\\u6574\\u5408\\u4e3a\\u4e00\\u79cd\\u3002\', u\'from\': {u\'id\': u\'326200042\', u\'name\': u\'Zhe Li\'}, u\'icon\': u\'http://b.static.ak.fbcdn.net/rsrc.php/zD/r/aS8ecmYRys0.gif\', u\'id\': u\'326200042_162716587095386\', u\'link\': u\'http://blog.systemsthoughts.com/2010/11/\\u7528...2web2py\\u4e2d\\u7684\\u767b\\u5165\\u673a\\u5236.html\', u\'name\': u\'\\u7528\\u8c46\\u74e3OAuth\\u8ba4\\u8bc1\\u66ff\\u636...u7684\\u767b\\u5165\\u673a\\u5236 | Systems Thoughts\', u\'type\': u\'link\', u\'updated_time\': u\'2010-11-03T10:15:01+0000\'}, {u\'caption\': u\'\\u4e0b\\u9762\\u9019\\u5f35\\u662f\\u54ea\\u9580\\u5b.../business_growth/data/new_businesses_established\', u\'created_time\': u\'2010-11-03T10:04:52+0000\', u\'from\': {u\'id\': u\'326200042\', u\'name\': u\'Zhe Li\'}, u\'icon\': u\'http://b.static.ak.fbcdn.net/rsrc.php/zD/r/aS8ecmYRys0.gif\', u\'id\': u\'326200042_171144592898089\', u\'link\': u\'http://www.facebook.com/photo.php?fbid=456212052499&set=a.119137517499.100765.5981562499\', u\'name\': u\'Loggfoton\', u\'picture\': u\'http://photos-h.ak.fbcdn.net/hphotos-ak-snc4/h...29_456212052499_5981562499_5327081_2657990_s.jpg\', u\'properties\': [{u\'href\': u\'http://www.facebook.com/mr6.cc\', u\'name\': u\'Tillh\\xf6rande\', u\'text\': u\'Mr. 6\'}], u\'type\': u\'photo\', ...}, {u\'caption\': u\'usesthis.com\', u\'created_time\': u\'2010-11-03T10:04:24+0000\', u\'description\': u"This is a waferbaby snafu. Follow us on Twitte...ailable via the Attribution-Share Alike license.", u\'from\': {u\'id\': u\'326200042\', u\'name\': u\'Zhe Li\'}, u\'icon\': u\'http://b.static.ak.fbcdn.net/rsrc.php/zD/r/aS8ecmYRys0.gif\', u\'id\': u\'326200042_158589937513112\', u\'link\': u\'http://usesthis.com/\', u\'message\': u\'http://usesthis.com/\', u\'name\': u\'The Setup\', u\'picture\': u\'http://external.ak.fbcdn.net/safe_image.php?d=...sthis.com%2Fimages%2Ficons%2Fkeita.takahashi.jpg\', ...}, {u\'caption\': u\'nitish1987.blogspot.com\', u\'created_time\': u\'2010-11-03T09:03:11+0000\', u\'description\': u\'Probably time to move out of your house if you... you can even store your own personal car in it.\', u\'from\': {u\'id\': u\'326200042\', u\'name\': u\'Zhe Li\'}, u\'icon\': u\'http://b.static.ak.fbcdn.net/rsrc.php/zD/r/aS8ecmYRys0.gif\', u\'id\': u\'326200042_115230778539645\', u\'link\': u\'http://nitish1987.blogspot.com/2010/03/luxury-bus-way-better-than-your-home.html\', u\'message\': u\'http://nitish1987.blogspot.com/2010/03/luxury-bus-way-better-than-your-home.html\', u\'name\': u\'Luxury Bus Way Better Than Your Home | Most amazing and funny things in the world\', u\'picture\': u\'http://external.ak.fbcdn.net/safe_image.php?d=...F%2Fwww.hemmy.net%2Fimages%2Fcar%2Fcoolbus01.jpg\', ...}, {u\'attribution\': u\'Instagram\', u\'caption\': u\'instagr.am\', u\'created_time\': u\'2010-11-02T20:23:48+0000\', u\'from\': {u\'id\': u\'326200042\', u\'name\': u\'Zhe Li\'}, u\'icon\': u\'http://photos-e.ak.fbcdn.net/photos-ak-snc1/v2...0/124024574287414/app_2_124024574287414_6936.gif\', u\'id\': u\'326200042_502908573293\', u\'likes\': 1, u\'link\': u\'http://instagr.am/p/IfHa/\', u\'message\': u\'Yum yum :)\', u\'name\': u\'http://instagr.am/p/IfHa/\', ...}, {u\'caption\': u\'www.whatthefuckshouldimakefordinner.com\', u\'comments\': {u\'count\': 4, u\'data\': [{u\'created_time\': u\'2010-11-02T15:02:51+0000\', u\'from\': {...}, u\'id\': u\'326200042_128598260527373_808121\', u\'message\': u"I got \'BRAISED OX TONGUE\', yumyum :DD"}]}, u\'created_time\': u\'2010-11-02T10:11:51+0000\', u\'description\': u\'What the fuck should you make for dinner? We will provide your indecisive self with some ideas.\', u\'from\': {u\'id\': u\'326200042\', u\'name\': u\'Zhe Li\'}, u\'icon\': u\'http://b.static.ak.fbcdn.net/rsrc.php/zD/r/aS8ecmYRys0.gif\', u\'id\': u\'326200042_128598260527373\', u\'link\': u\'http://www.whatthefuckshouldimakefordinner.com/\', u\'message\': u\'Just fucking try it.\', u\'name\': u\'What the Fuck Should I Make For Dinner\', ...}, {u\'attribution\': u\'Instagram\', u\'caption\': u\'instagr.am\', u\'created_time\': u\'2010-11-01T22:33:54+0000\', u\'from\': {u\'id\': u\'326200042\', u\'name\': u\'Zhe Li\'}, u\'icon\': u\'http://photos-e.ak.fbcdn.net/photos-ak-snc1/v2...0/124024574287414/app_2_124024574287414_6936.gif\', u\'id\': u\'326200042_502907171103\', u\'likes\': 1, u\'link\': u\'http://instagr.am/p/H_qQ/\', u\'message\': u\'JJ\', u\'name\': u\'http://instagr.am/p/H_qQ/\', ...}, {u\'attribution\': u\'Instagram\', u\'caption\': u\'instagr.am\', u\'created_time\': u\'2010-10-30T08:52:34+0000\', u\'from\': {u\'id\': u\'326200042\', u\'name\': u\'Zhe Li\'}, u\'icon\': u\'http://photos-e.ak.fbcdn.net/photos-ak-snc1/v2...0/124024574287414/app_2_124024574287414_6936.gif\', u\'id\': u\'326200042_502904351753\', u\'likes\': 2, u\'link\': u\'http://instagr.am/p/Gi4b/\', u\'message\': u\'Sleep heads\', u\'name\': u\'http://instagr.am/p/Gi4b/\', ...}, {u\'created_time\': u\'2010-10-29T19:29:00+0000\', u\'from\': {u\'id\': u\'326200042\', u\'name\': u\'Zhe Li\'}, u\'icon\': u\'http://b.static.ak.fbcdn.net/rsrc.php/zD/r/aS8ecmYRys0.gif\', u\'id\': u\'326200042_145273045519131\', u\'likes\': 1, u\'link\': u\'http://www.facebook.com/pages/Jing-Jing/108371469228120\', u\'name\': u\'Jing Jing\', u\'picture\': u\'http://profile.ak.fbcdn.net/hprofile-ak-snc4/hs458.snc4/50553_108371469228120_483555_n.jpg\', u\'properties\': [{u\'name\': u\'sida\', u\'text\': u\'En person gillar detta.\'}], u\'type\': u\'link\', ...}, {u\'created_time\': u\'2010-10-29T19:16:25+0000\', u\'from\': {u\'id\': u\'326200042\', u\'name\': u\'Zhe Li\'}, u\'icon\': u\'http://b.static.ak.fbcdn.net/rsrc.php/zD/r/aS8ecmYRys0.gif\', u\'id\': u\'326200042_171175659561166\', u\'link\': u\'http://www.facebook.com/http%3A%2F%2Ffbshare.me%2FAW3iB\', u\'name\': u\'\\u82ac\\u5170 MindTrek LaunchPad \\u5927\\u8d5b\\u5f97\\u5956\\u4ea7\\u54c1\\u4ecb\\u7ecd\', u\'type\': u\'link\', u\'updated_time\': u\'2010-10-29T19:16:25+0000\'}, {u\'attribution\': u\'Dropbox\', u\'caption\': u\'db.tt\', u\'created_time\': u\'2010-10-28T09:53:29+0000\', u\'description\': u"Safely and seamlessly sync your files with Dro...ay to share your files and access them anywhere.", u\'from\': {u\'id\': u\'326200042\', u\'name\': u\'Zhe Li\'}, u\'icon\': u\'http://photos-b.ak.fbcdn.net/photos-ak-snc1/v43/178/210019893730/app_2_210019893730_1514.gif\', u\'id\': u\'326200042_502902744973\', u\'likes\': 1, u\'link\': u\'http://db.tt/I2bGCG6\', u\'message\': u\'Dropbox. It goes to 11. \', ...}, {u\'caption\': u\'apps.facebook.com\', u\'created_time\': u\'2010-10-27T15:32:47+0000\', u\'description\': u\'Blablablablabla\', u\'from\': {u\'id\': u\'326200042\', u\'name\': u\'Zhe Li\'}, u\'icon\': u\'http://b.static.ak.fbcdn.net/rsrc.php/zD/r/aS8ecmYRys0.gif\', u\'id\': u\'326200042_173390489338072\', u\'link\': u\'http://apps.facebook.com/mavericklab/\', u\'message\': u\'Testing testing\\nhttp://apps.facebook.com/mavericklab/\', u\'name\': u\'Blablabla\', u\'picture\': u\'http://external.ak.fbcdn.net/safe_image.php?d=...A%2F%2Fimg3.douban.com%2Ficon%2Ful1146040-43.jpg\', ...}, {u\'caption\': u\'weburbanist.com\', u\'created_time\': u\'2010-10-26T12:01:35+0000\', u\'description\': u"Fancy computer programs aren\'t always necessar... - sometimes all you need is forced perspective.", u\'from\': {u\'id\': u\'326200042\', u\'name\': u\'Zhe Li\'}, u\'icon\': u\'http://b.static.ak.fbcdn.net/rsrc.php/zD/r/aS8ecmYRys0.gif\', u\'id\': u\'326200042_160065620700548\', u\'likes\': 1, u\'link\': u\'http://weburbanist.com/2010/10/25/fauxtoshop-15-phenomenal-forced-perspective-photos/\', u\'name\': u\'Fauxtoshop: 15 Phenomenal Forced-Perspective Photos  : WebUrbanist\', u\'picture\': u\'http://external.ak.fbcdn.net/safe_image.php?d=...2010%2F10%2Fforced-perspective-leaning-tower.jpg\', ...}, {u\'caption\': u\'www.youtube.com\', u\'created_time\': u\'2010-10-22T08:16:30+0000\', u\'description\': u\'\\u52a8\\u753b\\u5b66\\u966207\\u7ea7\\u5927\\u4e09\\u...com.cn/summerwack  my email:summerwack@gmail.com\', u\'from\': {u\'id\': u\'326200042\', u\'name\': u\'Zhe Li\'}, u\'icon\': u\'http://static.ak.fbcdn.net/rsrc.php/zj/r/v2OnaTyTQZE.gif\', u\'id\': u\'326200042_142667375779157\', u\'likes\': 1, u\'link\': u\'http://www.youtube.com/watch?v=aEP8ylQGIrY\', u\'message\': u\'homework from a Chinese art student\', u\'name\': u\'THE RED \\u300a\\u7ea2\\u9886\\u5dfe\\u4fa0\\u300b\', ...}, {u\'caption\': u\'open.spotify.com\', u\'created_time\': u\'2010-10-21T12:21:02+0000\', u\'description\': u"This is a link to Mah N\\xe0 Mah N\\xe0 (Album V...om \\u2013 it\'s free and no invitation is needed!", u\'from\': {u\'id\': u\'326200042\', u\'name\': u\'Zhe Li\'}, u\'icon\': u\'http://b.static.ak.fbcdn.net/rsrc.php/z0/r/nAApRnfWfNW.gif\', u\'id\': u\'326200042_163729870312359\', u\'link\': u\'http://open.spotify.com/track/3epemJNMYSXOsTvGr6fZKa\', u\'message\': u\':D\\nhttp://open.spotify.com/track/3epemJNMYSXOsTvGr6fZKa\', u\'name\': u\'Mah N\\xe0 Mah N\\xe0 (Album Version) - Piero Umiliani\', u\'picture\': u\'http://external.ak.fbcdn.net/safe_image.php?d=...thumb%2F8a19aa06f7b080f6696b2240cbf8d9eefdaecbb1\', ...}, ...], u\'paging\': {u\'next\': u\'https://graph.facebook.com/326200042/feed?acce...Sc&limit=25&until=2010-10-17T17%3A09%3A44%2B0000\', u\'previous\': u\'https://graph.facebook.com/326200042/feed?acce...Sc&limit=25&since=2010-11-04T21%3A09%3A32%2B0000\'}}'
p265
sS'user'
p266
S"<Storage {'username': '326200042', 'first_name':...assword': None, 'registration_key': '', 'id': 1}>"
p267
sS'v'
S"{u'attribution': u'Program Awesome', u'created_time': u'2010-11-04T20:58:02+0000', u'from': {u'id': u'326200042', u'name': u'Zhe Li'}, u'id': u'326200042_122207431171759', u'message': u'This is so awesome!', u'type': u'status', u'updated_time': u'2010-11-04T20:58:02+0000'}"
p268
sssS'traceback'
p269
S'Traceback (most recent call last):\n  File "/home/zhe/codes/awesomequiz/web2py/gluon/restricted.py", line 188, in restricted\n    exec ccode in environment\n  File "/home/zhe/codes/awesomequiz/web2py/applications/init/controllers/graph.py", line 41, in <module>\n  File "/home/zhe/codes/awesomequiz/web2py/gluon/globals.py", line 96, in <lambda>\n    self._caller = lambda f: f()\n  File "/home/zhe/codes/awesomequiz/web2py/gluon/tools.py", line 2270, in f\n    return action(*a, **b)\n  File "/home/zhe/codes/awesomequiz/web2py/applications/init/controllers/graph.py", line 37, in connection\n    response.menu=[[v[\'name\'], False, URL(r=request, f=\'index\', args=[\'id\', v[\'id\']])]  for v in connections[\'data\']]\nKeyError: \'name\'\n'
p270
s.