(dp1
S'output'
p2
S''
sS'layer'
p3
S'/home/zhe/codes/awesomequiz/web2py/applications/init/controllers/graph.py'
p4
sS'code'
p5
S'# -*- coding: utf-8 -*-\nfrom facebook import GraphAPI, GraphAPIError\n\n@auth.requires_login()\ndef index():\n    user = auth.user\n    response.flash = T(\'You are %(name)s\', dict(name=user[\'first_name\']))\n    if  len(request.args) >= 2 and request.args[0] == \'id\':\n        fb_id = request.args[1]\n    else:\n        fb_id = \'me\'\n    \n    graph = getGraph()\n    try:\n        fb_obj = graph.get_object(fb_id, metadata=1)\n    except GraphAPIError, e:\n        response.flash = "%s [%s: %s]" % (T("Logging you out!"),__name__, e)\n        redirect(auth.url(f=\'user\', args=\'logout\'))\n    \n    response.menu = [[k, False, URL(r=request, f=\'connection\', args=[fb_id,k])] for k,v in  fb_obj[\'metadata\'][\'connections\'].items()]\n    return dict(message=T(\'You are at  %(fb_id)s\', dict(fb_id=fb_id)))\n\n@auth.requires_login()\ndef connection():\n    user = auth.user\n    if not len(request.args) >= 2:\n        return None\n    fb_id = request.args[0]\n    fb_connection_name = request.args[1]\n    try:\n        connections = getGraph().get_connections(fb_id, fb_connection_name)\n    except GraphAPIError, e:\n        response.flash = "%s [%s: %s]" % (T("Logging you out!"),__name__, e)\n        redirect(auth.url(f=\'user\', args=\'logout\'))\n\n    \n    response.menu=[[v[\'name\'], False, URL(r=request, f=\'index\', args=[\'id\', v[\'id\']])]  for v in connections[\'data\']]\n    return dict(message=T(\'Looking list of %(conn_name)s of %(id)s\', dict(conn_name=fb_connection_name, id=fb_id)))\n\n\nresponse._vars=response._caller(connection)\n'
p6
sS'snapshot'
p7
(dp8
S'exception'
p9
(dp10
S'__hash__'
p11
S"<method-wrapper '__hash__' of exceptions.KeyError object>"
p12
sS'__setattr__'
p13
S"<method-wrapper '__setattr__' of exceptions.KeyError object>"
p14
sS'__reduce_ex__'
p15
S'<built-in method __reduce_ex__ of exceptions.KeyError object>'
p16
sS'__getslice__'
p17
S"<method-wrapper '__getslice__' of exceptions.KeyError object>"
p18
sS'__getitem__'
p19
S"<method-wrapper '__getitem__' of exceptions.KeyError object>"
p20
sS'__setstate__'
p21
S'<built-in method __setstate__ of exceptions.KeyError object>'
p22
sS'__reduce__'
p23
S'<built-in method __reduce__ of exceptions.KeyError object>'
p24
sS'__str__'
p25
S"<method-wrapper '__str__' of exceptions.KeyError object>"
p26
sS'__format__'
p27
S'<built-in method __format__ of exceptions.KeyError object>'
p28
sS'__getattribute__'
p29
S"<method-wrapper '__getattribute__' of exceptions.KeyError object>"
p30
sS'__class__'
p31
S"<type 'exceptions.KeyError'>"
p32
sS'__unicode__'
p33
S'<built-in method __unicode__ of exceptions.KeyError object>'
p34
sS'__delattr__'
p35
S"<method-wrapper '__delattr__' of exceptions.KeyError object>"
p36
sS'__subclasshook__'
p37
S'<built-in method __subclasshook__ of type object>'
p38
sS'__repr__'
p39
S"<method-wrapper '__repr__' of exceptions.KeyError object>"
p40
sS'args'
p41
S"('name',)"
p42
sS'__dict__'
p43
S'{}'
p44
sS'__sizeof__'
p45
S'<built-in method __sizeof__ of exceptions.KeyError object>'
p46
sS'__doc__'
p47
S"'Mapping key not found.'"
p48
sS'__init__'
p49
S"<method-wrapper '__init__' of exceptions.KeyError object>"
p50
sS'__new__'
p51
S'<built-in method __new__ of type object>'
p52
ssS'evalue'
p53
S"'name'"
p54
sS'request'
p55
(dp56
S'function'
p57
S"'connection'"
p58
sS'body'
p59
S'<cStringIO.StringO object>'
p60
sS'wsgi'
p61
S"<Storage {'start_response': <function <lambda> a...>, 'HTTP_ACCEPT_ENCODING': 'gzip,deflate,sdch'}}>"
p62
sS'extension'
p63
S"'html'"
p64
sS'vars'
p65
S'<Storage {}>'
p66
sS'cid'
p67
S'None'
p68
sS'url'
p69
S'<gluon.html.XML object>'
p70
sg41
S"['1603106506', 'feed']"
p71
sS'controller'
p72
S"'graph'"
p73
sS'cookies'
p74
S"<SimpleCookie: session_id_admin='127-0-0-1-31af8...'127-0-0-1-b8c384f0-1121-4f7a-a646-363ab8bd55f9'>"
p75
sS'application'
p76
S"'init'"
p77
sS'ajax'
p78
S'False'
p79
sS'client'
p80
S"'127.0.0.1'"
p81
sS'env'
p82
S"<Storage {'http_user_agent': 'Mozilla/5.0 (X11; ...ch', 'query_string': '', 'wsgi_run_once': False}>"
p83
sS'raw_args'
p84
S"'1603106506/feed'"
p85
sS'get_vars'
p86
S'<Storage {}>'
p87
sS'folder'
p88
S"'/home/zhe/codes/awesomequiz/web2py/applications/init/'"
p89
sS'now'
p90
S'datetime.datetime(2010, 11, 4, 22, 45, 22, 776833)'
p91
sS'post_vars'
p92
S'<Storage {}>'
p93
ssS'frames'
p94
(lp95
(dp96
S'file'
p97
S'/home/zhe/codes/awesomequiz/web2py/gluon/restricted.py'
p98
sS'dump'
p99
(dp100
S'environment'
p101
S"{'A': <class 'gluon.html.A'>, 'Auth': <class 'gluon.tools.Auth'>, 'B': <class 'gluon.html.B'>, 'BEAUTIFY': <class 'gluon.html.BEAUTIFY'>, 'BODY': <class 'gluon.html.BODY'>, 'BR': <class 'gluon.html.BR'>, 'CENTER': <class 'gluon.html.CENTER'>, 'CLEANUP': <class 'gluon.validators.CLEANUP'>, 'CLIENT_ID': '171657759516876', 'CLIENT_SECRET': '1ab56c84a1d338972c8786e49eaa7247', ...}"
p102
sS'ccode'
p103
S'<code object <module> at 0xa5aec38, file "/home/.../applications/init/controllers/graph.py", line 2>'
p104
ssS'lnum'
p105
I188
sS'lines'
p106
(dp107
I192
S'        # XXX Show exception in Wing IDE if running in debugger'
p108
sI183
S'        if type(code) == types.CodeType:'
p109
sI184
S'            ccode = code'
p110
sI185
S'        else:'
p111
sI186
S'            ccode = compile2(code,layer)'
p112
sI187
S''
sI188
S'        exec ccode in environment'
p113
sI189
S'    except HTTP:'
p114
sI190
S'        raise'
p115
sI191
S'    except Exception:'
p116
ssS'call'
p117
S"(code='# -*- coding: utf-8 -*-\\nfrom facebook import Gra...))\\n\\n\\nresponse._vars=response._caller(connection)\\n', environment={'A': <class 'gluon.html.A'>, 'Auth': <class 'gluon.tools.Auth'>, 'B': <class 'gluon.html.B'>, 'BEAUTIFY': <class 'gluon.html.BEAUTIFY'>, 'BODY': <class 'gluon.html.BODY'>, 'BR': <class 'gluon.html.BR'>, 'CENTER': <class 'gluon.html.CENTER'>, 'CLEANUP': <class 'gluon.validators.CLEANUP'>, 'CLIENT_ID': '171657759516876', 'CLIENT_SECRET': '1ab56c84a1d338972c8786e49eaa7247', ...}, layer='/home/zhe/codes/awesomequiz/web2py/applications/init/controllers/graph.py')"
p118
sS'func'
p119
S'restricted'
p120
sa(dp121
g97
S'/home/zhe/codes/awesomequiz/web2py/applications/init/controllers/graph.py'
p122
sg99
(dp123
sg105
I41
sg106
(dp124
I32
S'    except GraphAPIError, e:'
p125
sI33
S'        response.flash = "%s [%s: %s]" % (T("Logging you out!"),__name__, e)'
p126
sI34
S"        redirect(auth.url(f='user', args='logout'))"
p127
sI35
S''
sI36
S''
sI37
S"    response.menu=[[v['name'], False, URL(r=request, f='index', args=['id', v['id']])]  for v in connections['data']]"
p128
sI38
S"    return dict(message=T('Looking list of %(conn_name)s of %(id)s', dict(conn_name=fb_connection_name, id=fb_id)))"
p129
sI39
S''
sI30
S'    try:'
p130
sI31
S'        connections = getGraph().get_connections(fb_id, fb_connection_name)'
p131
ssg117
S'()'
p132
sg119
S'<module>'
p133
sa(dp134
g97
S'/home/zhe/codes/awesomequiz/web2py/gluon/globals.py'
p135
sg99
(dp136
S'self'
p137
S'undefined'
p138
sS'f'
S'<function connection>'
p139
ssg105
I96
sg106
(dp140
I96
S'        self._caller = lambda f: f()'
p141
sI97
S'        self._view_environment = None'
p142
sI98
S'        self._custom_commit = None'
p143
sI99
S'        self._custom_rollback = None'
p144
sI100
S''
sI91
S"        self.flash = ''           # used by the default view layout"
p145
sI92
S'        self.meta = Storage()     # used by web2py_ajax.html'
p146
sI93
S'        self.menu = []            # used by the default view layout'
p147
sI94
S'        self.files = []           # used by web2py_ajax.html'
p148
sI95
S'        self._vars = None'
p149
ssg117
S'(f=<function connection>)'
p150
sg119
S'<lambda>'
p151
sa(dp152
g97
S'/home/zhe/codes/awesomequiz/web2py/gluon/tools.py'
p153
sg99
(dp154
S'action'
p155
S'<function connection>'
p156
sS'a'
S'()'
p157
sS'b'
g44
ssg105
I2270
sg106
(dp158
I2272
S'            f.__name__ = action.__name__'
p159
sI2273
S'            f.__dict__.update(action.__dict__)'
p160
sI2274
S'            return f'
p161
sI2265
S'                               vars=request.get_vars)'
p162
sI2266
S'                    return call_or_redirect(self.settings.on_failed_authentication,'
p163
sI2267
S'                                            self.settings.login_url + \\'
p164
sI2268
S"                                                '?_next='+urllib.quote(next)"
p165
sI2269
S'                                            )'
p166
sI2270
S'                return action(*a, **b)'
p167
sI2271
S'            f.__doc__ = action.__doc__'
p168
ssg117
S'(*a=(), **b={})'
p169
sg119
S'f'
sa(dp170
g97
S'/home/zhe/codes/awesomequiz/web2py/applications/init/controllers/graph.py'
p171
sg99
(dp172
S'response.menu'
p173
S"[[<lazyT 'Index'>, False, <gluon.html.XML object>, []]]"
p174
sS'builtinFalse'
p175
g79
sS'f'
g138
sS'global request'
p176
S"<Storage {'function': 'connection', 'body': <cSt... 22, 45, 22, 776833), 'post_vars': <Storage {}>}>"
p177
sS'connections'
p178
S'{u\'data\': [{u\'caption\': u\'nitish1987.blogspot.com\', u\'created_time\': u\'2010-11-04T15:59:28+0000\', u\'description\': u\'Probably time to move out of your house if you... you can even store your own personal car in it.\', u\'from\': {u\'id\': u\'1603106506\', u\'name\': u\'Petra B\\xe9czi\'}, u\'icon\': u\'http://b.static.ak.fbcdn.net/rsrc.php/zD/r/aS8ecmYRys0.gif\', u\'id\': u\'1603106506_104256712976588\', u\'link\': u\'http://nitish1987.blogspot.com/2010/03/luxury-bus-way-better-than-your-home.html\', u\'message\': u\'Nekem kett\\u0151 is van bel\\u0151le...<D\', u\'name\': u\'Luxury Bus Way Better Than Your Home | Most amazing and funny things in the world\', u\'picture\': u\'http://external.ak.fbcdn.net/safe_image.php?d=...F%2Fwww.hemmy.net%2Fimages%2Fcar%2Fcoolbus01.jpg\', ...}, {u\'comments\': {u\'count\': 1, u\'data\': [{u\'created_time\': u\'2010-11-04T16:08:44+0000\', u\'from\': {...}, u\'id\': u\'1603106506_129857193734845_805008\', u\'message\': u\':D\'}]}, u\'created_time\': u\'2010-11-04T15:53:34+0000\', u\'from\': {u\'id\': u\'1603106506\', u\'name\': u\'Petra B\\xe9czi\'}, u\'id\': u\'1603106506_129857193734845\', u\'message\': u\'Seems like Facebook\\\'s stupidest applications ...nd of sock are you?".."Daily bullshit for you"..\', u\'type\': u\'status\', u\'updated_time\': u\'2010-11-04T16:08:44+0000\'}, {u\'created_time\': u\'2010-11-03T13:09:49+0000\', u\'from\': {u\'id\': u\'1603106506\', u\'name\': u\'Petra B\\xe9czi\'}, u\'id\': u\'1603106506_108113792587749\', u\'likes\': 1, u\'message\': u\'Tanulom a html nyelvet\', u\'type\': u\'status\', u\'updated_time\': u\'2010-11-03T13:09:49+0000\'}, {u\'caption\': u\'cffc.chs.chalmers.se\', u\'comments\': {u\'count\': 2, u\'data\': [{u\'created_time\': u\'2010-11-01T16:15:50+0000\', u\'from\': {...}, u\'id\': u\'1603106506_163943030293193_1805931\', u\'message\': u\'De j\\xf3 volt!!!!!!\'}, {u\'created_time\': u\'2010-11-04T15:48:01+0000\', u\'from\': {...}, u\'id\': u\'1603106506_163943030293193_1832805\', u\'message\': u\'Somebody should dress as Mr.Bean next time.\'}]}, u\'created_time\': u\'2010-11-01T16:15:20+0000\', u\'description\': u\'Foto fr\\xe5n Chalmers Film- & Fotocommitt\\xe9\', u\'from\': {u\'id\': u\'1603106506\', u\'name\': u\'Petra B\\xe9czi\'}, u\'icon\': u\'http://b.static.ak.fbcdn.net/rsrc.php/zz/r/StEh3RhPvjk.gif\', u\'id\': u\'1603106506_163943030293193\', u\'likes\': 2, u\'link\': u\'http://cffc.chs.chalmers.se/bilder/2010/halloweenkalaset/\', u\'message\': u\'http://cffc.chs.chalmers.se/bilder/2010/halloweenkalaset/\', ...}, {u\'comments\': {u\'count\': 1, u\'data\': [{u\'created_time\': u\'2010-10-30T10:00:19+0000\', u\'from\': {...}, u\'id\': u\'1603106506_159489384090916_1711704\', u\'message\': u\'Valahogy \\xe9reztem, hogy neked ez tetszeni fog :D\'}]}, u\'created_time\': u\'2010-10-30T09:52:55+0000\', u\'from\': {u\'id\': u\'1603106506\', u\'name\': u\'Petra B\\xe9czi\'}, u\'id\': u\'1603106506_159489384090916\', u\'likes\': 3, u\'message\': u\'Today halloween party , costumes and beers!!!\', u\'type\': u\'status\', u\'updated_time\': u\'2010-10-30T10:00:19+0000\'}, {u\'caption\': u\'www.familyguyepisodes.tv\', u\'created_time\': u\'2010-10-28T11:38:46+0000\', u\'description\': u"Watch he\'s too sexy for his fat - Chris become...iet, eats too much and starts to develop an eati", u\'from\': {u\'id\': u\'1603106506\', u\'name\': u\'Petra B\\xe9czi\'}, u\'icon\': u\'http://b.static.ak.fbcdn.net/rsrc.php/zD/r/aS8ecmYRys0.gif\', u\'id\': u\'1603106506_119657118095880\', u\'link\': u\'http://www.familyguyepisodes.tv/family_guy_season_2_episode_17_hes_too_sexy_for_his_fat.html\', u\'message\': u\'Peter lose his fat\', u\'name\': u"Watch Family Guy Season 2, Episode 17 - He\'s Too Sexy For His Fat", u\'type\': u\'link\', ...}, {u\'created_time\': u\'2010-10-27T07:59:40+0000\', u\'from\': {u\'id\': u\'1603106506\', u\'name\': u\'Petra B\\xe9czi\'}, u\'id\': u\'1603106506_119446514781847\', u\'message\': u\'Esik az es\\u0151 =/\', u\'type\': u\'status\', u\'updated_time\': u\'2010-10-27T07:59:40+0000\'}, {u\'caption\': u\'www.youtube.com\', u\'created_time\': u\'2010-10-26T09:27:25+0000\', u\'description\': u\'Magyar n\\xe9mes\\xe9k sorozat. www.magyarnepmesek.hu\', u\'from\': {u\'id\': u\'1603106506\', u\'name\': u\'Petra B\\xe9czi\'}, u\'icon\': u\'http://static.ak.fbcdn.net/rsrc.php/zj/r/v2OnaTyTQZE.gif\', u\'id\': u\'1603106506_161871040511660\', u\'link\': u\'http://www.youtube.com/watch?v=jMZxT5r2Y5c\', u\'message\': u\'"A liba meg \\xfat k\\xf6zben le-le fosta :D"\', u\'name\': u\'A butyuta ember (Magyar n\\xe9pmese)\', u\'picture\': u\'http://external.ak.fbcdn.net/safe_image.php?d=...p%3A%2F%2Fi.ytimg.com%2Fvi%2FjMZxT5r2Y5c%2F3.jpg\', ...}, {u\'caption\': u\'www.youtube.com\', u\'created_time\': u\'2010-10-25T10:09:23+0000\', u\'description\': u\'But what changes will the Chinese government demand?\', u\'from\': {u\'id\': u\'1603106506\', u\'name\': u\'Petra B\\xe9czi\'}, u\'icon\': u\'http://static.ak.fbcdn.net/rsrc.php/zj/r/v2OnaTyTQZE.gif\', u\'id\': u\'1603106506_160756407292135\', u\'link\': u\'http://www.youtube.com/watch?v=PxymwN7nYQQ\', u\'name\': u\'SpongeBob Square Pants in China\', u\'picture\': u\'http://external.ak.fbcdn.net/safe_image.php?d=...p%3A%2F%2Fi.ytimg.com%2Fvi%2FPxymwN7nYQQ%2F0.jpg\', u\'source\': u\'http://www.youtube.com/v/PxymwN7nYQQ&autoplay=1\', ...}, {u\'caption\': u\'www.youtube.com\', u\'created_time\': u\'2010-10-25T09:39:24+0000\', u\'description\': u\'ecco finalmente pubblicato questo video. La ca...nza, la trovo molto "vicina" alla vita...    Lou\', u\'from\': {u\'id\': u\'1603106506\', u\'name\': u\'Petra B\\xe9czi\'}, u\'icon\': u\'http://static.ak.fbcdn.net/rsrc.php/zj/r/v2OnaTyTQZE.gif\', u\'id\': u\'1603106506_171438216204541\', u\'link\': u\'http://www.youtube.com/watch?v=5-ltDECc2bA\', u\'name\': u\'PERFECT DAY - Lou Reed\', u\'picture\': u\'http://external.ak.fbcdn.net/safe_image.php?d=...p%3A%2F%2Fi.ytimg.com%2Fvi%2F5-ltDECc2bA%2F0.jpg\', u\'source\': u\'http://www.youtube.com/v/5-ltDECc2bA&autoplay=1\', ...}, {u\'caption\': u\'bombahir.hu\', u\'created_time\': u\'2010-10-25T07:45:24+0000\', u\'description\': u\'Bombah\\xedr - F\\xfcggetlen h\\xedrport\\xe1l\', u\'from\': {u\'id\': u\'1603106506\', u\'name\': u\'Petra B\\xe9czi\'}, u\'icon\': u\'http://b.static.ak.fbcdn.net/rsrc.php/zD/r/aS8ecmYRys0.gif\', u\'id\': u\'1603106506_164728193555565\', u\'link\': u\'http://bombahir.hu/index.php?option=com_conten...an&catid=113%3Arovat-kulfold-messzebb&Itemid=495\', u\'message\': u\'Barb\\xe1r, buta egy n\\xe9ps\\xe9g . M\\xe9g egym... sem fejl\\u0151dtek se testileg se szellemileg .\', u\'name\': u\'\\xdajabb ritu\\xe1lis gyilkoss\\xe1gok Afrik\\xe1ban\', u\'picture\': u\'http://external.ak.fbcdn.net/safe_image.php?d=..._e553b0105d39d6eac8fe41f21b5c3e91_wm_200_200.jpg\', ...}, {u\'actions\': [{u\'link\': u\'http://apps.facebook.com/myphrases/apps/?id=404673&stream_cl=1\', u\'name\': u\'10\'}], u\'attribution\': u\'Phrases\', u\'caption\': u\'Petra megkapta:\', u\'comments\': {u\'count\': 1, u\'data\': [{u\'created_time\': u\'2010-10-22T16:44:13+0000\', u\'from\': {...}, u\'id\': u\'1603106506_105969646136449_138965\', u\'message\': u\'Ja, tudod, elvalok a regitol es  hozzamegyek a mostanihoz :D\'}]}, u\'created_time\': u\'2010-10-22T14:09:16+0000\', u\'from\': {u\'id\': u\'1603106506\', u\'name\': u\'Petra B\\xe9czi\'}, u\'icon\': u\'http://photos-b.ak.fbcdn.net/photos-ak-snc1/v43/240/350031875244/app_2_350031875244_2165.gif\', u\'id\': u\'1603106506_105969646136449\', u\'likes\': 2, u\'link\': u\'http://apps.facebook.com/myphrases/apps/?id=404673&stream_cl=1\', ...}, {u\'caption\': u\'www.gumicsizma.hu\', u\'created_time\': u\'2010-10-18T13:54:25+0000\', u\'description\': u\'Vicces, humoros k\\xe9pek \\xe9s vide\\xf3k. Vicc...hj\\xe1t\\xe9kok \\xe9s viccek gy\\u0171jtem\\xe9nye.\', u\'from\': {u\'id\': u\'1603106506\', u\'name\': u\'Petra B\\xe9czi\'}, u\'icon\': u\'http://b.static.ak.fbcdn.net/rsrc.php/zD/r/aS8ecmYRys0.gif\', u\'id\': u\'1603106506_167874239895178\', u\'link\': u\'http://www.gumicsizma.hu/view_video?view=YTozOntzOjU6ImNhdGVnIjtzOjI6IjM1IjtzOjg6Im\', u\'message\': u\'Link: http://www.gumicsizma.hu/view_video?view...IjtzOjU6IjM1NTc5IjtzOjQ6Im9wZW4iO3M6MToiNCI7fQ==\', u\'name\': u\'Gumicsizma - Vicces vide\\xf3k, Vicces k\\xe9pek gy\\u0171jtem\\xe9nye\', u\'picture\': u\'http://external.ak.fbcdn.net/safe_image.php?d=...2Fwww.gumicsizma.hu%2Fimages%2Fgumicsizma_69.jpg\', ...}, {u\'caption\': u\'www.netszar.com\', u\'comments\': {u\'count\': 1, u\'data\': [{u\'created_time\': u\'2010-10-18T06:43:54+0000\', u\'from\': {...}, u\'id\': u\'1603106506_158196284213718_1667538\', u\'message\': u\':D\'}]}, u\'created_time\': u\'2010-10-17T11:54:20+0000\', u\'description\': u\'netsz@r.com    \\xa9 2007 All Rights Reserved. ...jegyz\\xe9sek | V\\xe9lem\\xe9nyek | Adatv\\xe9delem\', u\'from\': {u\'id\': u\'1603106506\', u\'name\': u\'Petra B\\xe9czi\'}, u\'icon\': u\'http://b.static.ak.fbcdn.net/rsrc.php/zD/r/aS8ecmYRys0.gif\', u\'id\': u\'1603106506_158196284213718\', u\'link\': u\'http://www.netszar.com/kep/2010/10/16/napi-cukisag-9/\', u\'message\': u\'K\\xednai hotdog :D\', u\'name\': u\'netsz@r.com | Napi cukis\\xe1g\', ...}, {u\'caption\': u\'Sacco frizur\\xe1k a Salonr\\xf3l\', u\'created_time\': u\'2010-10-16T15:45:09+0000\', u\'from\': {u\'id\': u\'1603106506\', u\'name\': u\'Petra B\\xe9czi\'}, u\'icon\': u\'http://b.static.ak.fbcdn.net/rsrc.php/zD/r/aS8ecmYRys0.gif\', u\'id\': u\'1603106506_138379459543759\', u\'link\': u\'http://www.facebook.com/photo.php?fbid=158523410848436&set=-.\', u\'message\': u\'J\\xe9zusom, ott k\\xf6z\\xe9pen az a v\\xf6r\\xf6s t\\xe9nyleg olyan ,mint egy szakadt gomba.\', u\'name\': u\'Mobiluppladdningar\', u\'picture\': u\'http://photos-d.ak.fbcdn.net/hphotos-ak-snc4/h...23410848436_100000723342504_316937_2906171_s.jpg\', u\'properties\': [{u\'href\': u\'http://www.facebook.com/profile.php?id=100000723342504\', u\'name\': u\'Tillh\\xf6rande\', u\'text\': u\'Tam\\xe1s Zsidr\\xf3\'}], ...}, {u\'comments\': {u\'count\': 6, u\'data\': [{u\'created_time\': u\'2010-10-17T11:53:01+0000\', u\'from\': {...}, u\'id\': u\'1603106506_146962562015274_1349373\', u\'message\': u\'M\\xe9g nem, most j\\xf6n csak a java. De szerin...r jobb lesz. \\nM\\xe9g j\\xf3 , nekem \\xedzlett :D\'}]}, u\'created_time\': u\'2010-10-16T08:05:41+0000\', u\'from\': {u\'id\': u\'1603106506\', u\'name\': u\'Petra B\\xe9czi\'}, u\'id\': u\'1603106506_146962562015274\', u\'message\': u\'Beteg vagyok , faj a torkom es elhordtak az os...glepo, mivel mindenki utalja, en  kulonoskeppen!\', u\'type\': u\'status\', u\'updated_time\': u\'2010-10-17T11:53:01+0000\'}, {u\'caption\': u\'www.youtube.com\', u\'created_time\': u\'2010-10-13T14:04:05+0000\', u\'description\': u\'Annoying Orange hangs out with the whole gang....OOTH: http://dailybooth.com/annoyingorange   ...\', u\'from\': {u\'id\': u\'1603106506\', u\'name\': u\'Petra B\\xe9czi\'}, u\'icon\': u\'http://static.ak.fbcdn.net/rsrc.php/zj/r/v2OnaTyTQZE.gif\', u\'id\': u\'1603106506_158867900803089\', u\'link\': u\'http://www.youtube.com/watch?v=cL_qGMfbtAk\', u\'message\': u\'ezt a szart\', u\'name\': u\'Annoying Orange Wazzup\', u\'picture\': u\'http://external.ak.fbcdn.net/safe_image.php?d=...p%3A%2F%2Fi.ytimg.com%2Fvi%2FcL_qGMfbtAk%2F0.jpg\', ...}, {u\'created_time\': u\'2010-10-13T07:37:17+0000\', u\'from\': {u\'id\': u\'1603106506\', u\'name\': u\'Petra B\\xe9czi\'}, u\'id\': u\'1603106506_125261974194771\', u\'message\': u\'-1 fok van :(\', u\'type\': u\'status\', u\'updated_time\': u\'2010-10-13T07:37:17+0000\'}, {u\'actions\': [{u\'link\': u\'http://apps.facebook.com/tripadvisortravelmap/?a=MAP&fbsrc=nfFavoritesFigsLink1\', u\'name\': u\'Pick your favorites!\'}], u\'attribution\': u"TripAdvisor - Cities I\'ve Visited\\u2122", u\'caption\': u\'Petra just picked his/her favorite cities:\', u\'comments\': {u\'count\': 1, u\'data\': [{u\'created_time\': u\'2010-10-13T07:26:08+0000\', u\'from\': {...}, u\'id\': u\'1603106506_141884399190583_1197105\', u\'message\': u\'Neeem, de olyan funkci\\xf3 nem volt, hogy hol sz\\xfclettem...csak, hogy hol j\\xe1rtam stb..\'}]}, u\'created_time\': u\'2010-10-12T07:46:19+0000\', u\'description\': u\'1. Budapest, Hungary / 2. Gothenburg, Sweden \', u\'from\': {u\'id\': u\'1603106506\', u\'name\': u\'Petra B\\xe9czi\'}, u\'icon\': u\'http://photos-b.ak.fbcdn.net/photos-ak-snc1/v43/246/2219089314/app_2_2219089314_7035.gif\', u\'id\': u\'1603106506_141884399190583\', u\'link\': u\'http://apps.facebook.com/tripadvisortravelmap/?a=MAP&fbsrc=nfFavoritesFigs\', ...}, {u\'caption\': u\'www.youtube.com\', u\'created_time\': u\'2010-10-11T14:41:16+0000\', u\'description\': u\'Vili a ver\\xe9b c. magyar rajzfilm 1988-b\\xf3l...e9sz: http://www.youtube.com/watch?v=tO9vdPFggZk\', u\'from\': {u\'id\': u\'1603106506\', u\'name\': u\'Petra B\\xe9czi\'}, u\'icon\': u\'http://static.ak.fbcdn.net/rsrc.php/zj/r/v2OnaTyTQZE.gif\', u\'id\': u\'1603106506_154629724576718\', u\'likes\': 2, u\'link\': u\'http://www.youtube.com/watch?v=1ly-DnTZPlM\', u\'message\': u\'De im\\xe1dtam ezt a filmet!!!\', u\'name\': u\'Vili a ver\\xe9b part 1/8\', ...}], u\'paging\': {u\'next\': u\'https://graph.facebook.com/1603106506/feed?acc...Sc&limit=25&until=2010-10-11T14%3A41%3A15%2B0000\', u\'previous\': u\'https://graph.facebook.com/1603106506/feed?acc...Sc&limit=25&since=2010-11-04T15%3A59%3A28%2B0000\'}}'
p179
sS'args'
p180
g138
sS'global URL'
p181
S'<function _URL>'
p182
sS'r'
g138
sS'global response'
p183
S"<Storage {'body': <cStringIO.StringO object at 0... at 0xa58dbc4>, 'view': 'graph/connection.html'}>"
p184
sS'v'
S'{u\'comments\': {u\'count\': 1, u\'data\': [{u\'created_time\': u\'2010-11-04T16:08:44+0000\', u\'from\': {u\'id\': u\'1603106506\', u\'name\': u\'Petra B\\xe9czi\'}, u\'id\': u\'1603106506_129857193734845_805008\', u\'message\': u\':D\'}]}, u\'created_time\': u\'2010-11-04T15:53:34+0000\', u\'from\': {u\'id\': u\'1603106506\', u\'name\': u\'Petra B\\xe9czi\'}, u\'id\': u\'1603106506_129857193734845\', u\'message\': u\'Seems like Facebook\\\'s stupidest applications ...nd of sock are you?".."Daily bullshit for you"..\', u\'type\': u\'status\', u\'updated_time\': u\'2010-11-04T16:08:44+0000\'}'
p185
ssg105
I37
sg106
(dp186
I32
S'    except GraphAPIError, e:'
p187
sI33
S'        response.flash = "%s [%s: %s]" % (T("Logging you out!"),__name__, e)'
p188
sI34
S"        redirect(auth.url(f='user', args='logout'))"
p189
sI35
S''
sI36
S''
sI37
S"    response.menu=[[v['name'], False, URL(r=request, f='index', args=['id', v['id']])]  for v in connections['data']]"
p190
sI38
S"    return dict(message=T('Looking list of %(conn_name)s of %(id)s', dict(conn_name=fb_connection_name, id=fb_id)))"
p191
sI39
S''
sI30
S'    try:'
p192
sI31
S'        connections = getGraph().get_connections(fb_id, fb_connection_name)'
p193
ssg117
S'()'
p194
sg119
S'connection'
p195
sasS'pyver'
p196
S'Python 2.6.5: /usr/bin/python'
p197
sS'session'
p198
(dp199
S'token'
p200
S"{'access_token': '171657759516876|2.J8_o6ahJEjK3tDqonX5ELQ__.3600.1288911600-326200042|uag7K3b7_mqg1Nv7ARqtBVBUNSc', 'expires': '6367'}"
p201
sS'flash'
p202
S'None'
p203
sS'auth'
p204
S"<Storage {'expiration': 3600, 'user': <Storage {..., 11, 4, 22, 45, 22, 776833), 'remember': False}>"
p205
sS'redirect_uri'
p206
S"'http://localhost:8000/init/default/user/login?_next=%2Finit%2Fdefault%2Findex'"
p207
ssS'etype'
p208
S"<type 'exceptions.KeyError'>"
p209
sS'date'
p210
S'Thu Nov  4 22:45:25 2010'
p211
sS'response'
p212
(dp213
S'_vars'
p214
S'None'
p215
sg74
S"<SimpleCookie: session_id_init='127-0-0-1-5004038d-cc3f-4ae6-8da6-c286ef798c71'>"
p216
sS'subtitle'
p217
S"<lazyT 'customize me!'>"
p218
sS'meta'
p219
S'<Storage {}>'
p220
sS'_view_environment'
p221
S"{'A': <class 'gluon.html.A'>, 'Auth': <class 'gluon.tools.Auth'>, 'B': <class 'gluon.html.B'>, 'BEAUTIFY': <class 'gluon.html.BEAUTIFY'>, 'BODY': <class 'gluon.html.BODY'>, 'BR': <class 'gluon.html.BR'>, 'CENTER': <class 'gluon.html.CENTER'>, 'CLEANUP': <class 'gluon.validators.CLEANUP'>, 'CLIENT_ID': '171657759516876', 'CLIENT_SECRET': '1ab56c84a1d338972c8786e49eaa7247', ...}"
p222
sS'files'
p223
S'[]'
p224
sS'title'
p225
S"'init'"
p226
sS'_caller'
p227
S'<function <lambda>>'
p228
sS'flash'
p229
S"''"
p230
sS'session_id_name'
p231
S"'session_id_init'"
p232
sS'_custom_commit'
p233
S'None'
p234
sS'session_filename'
p235
S"'/home/zhe/codes/awesomequiz/web2py/applications/...ns/127-0-0-1-5004038d-cc3f-4ae6-8da6-c286ef798c71'"
p236
sS'menu_edit'
p237
S"[[<lazyT 'Edit'>, False, <gluon.html.XML object>, [[<lazyT 'Controller'>, False, <gluon.html.XML object>], [<lazyT 'View'>, False, <gluon.html.XML object>], [<lazyT 'Layout'>, False, <gluon.html.XML object>], [<lazyT 'Stylesheet'>, False, <gluon.html.XML object>], [<lazyT 'DB Model'>, False, <gluon.html.XML object>], [<lazyT 'Menu Model'>, False, <gluon.html.XML object>], [<lazyT 'Database'>, False, <gluon.html.XML object>]]]]"
p238
sg59
S'<cStringIO.StringO object>'
p239
sS'session_file'
p240
S"<open file '/home/zhe/codes/awesomequiz/web2py/a...004038d-cc3f-4ae6-8da6-c286ef798c71', mode 'rb+'>"
p241
sS'_custom_rollback'
p242
S'None'
p243
sS'session_id'
p244
S"'127-0-0-1-5004038d-cc3f-4ae6-8da6-c286ef798c71'"
p245
sS'headers'
p246
S"<Storage {'Expires': 'Thu, 04 Nov 2010 21:45:22 ...he, must-revalidate, post-check=0, pre-check=0'}>"
p247
sS'status'
p248
S'200'
p249
sS'postprocessing'
p250
S'[]'
p251
sS'menu'
p252
S"[[<lazyT 'Index'>, False, <gluon.html.XML object>, []]]"
p253
sS'view'
p254
S"'graph/connection.html'"
p255
ssS'locals'
p256
(dp257
S'_[1]'
p258
S"[[u'Luxury Bus Way Better Than Your Home | Most amazing and funny things in the world', False, <gluon.html.XML object>]]"
p259
sS'fb_connection_name'
p260
S"'feed'"
p261
sS'fb_id'
p262
S"'1603106506'"
p263
sS'connections'
p264
S'{u\'data\': [{u\'caption\': u\'nitish1987.blogspot.com\', u\'created_time\': u\'2010-11-04T15:59:28+0000\', u\'description\': u\'Probably time to move out of your house if you... you can even store your own personal car in it.\', u\'from\': {u\'id\': u\'1603106506\', u\'name\': u\'Petra B\\xe9czi\'}, u\'icon\': u\'http://b.static.ak.fbcdn.net/rsrc.php/zD/r/aS8ecmYRys0.gif\', u\'id\': u\'1603106506_104256712976588\', u\'link\': u\'http://nitish1987.blogspot.com/2010/03/luxury-bus-way-better-than-your-home.html\', u\'message\': u\'Nekem kett\\u0151 is van bel\\u0151le...<D\', u\'name\': u\'Luxury Bus Way Better Than Your Home | Most amazing and funny things in the world\', u\'picture\': u\'http://external.ak.fbcdn.net/safe_image.php?d=...F%2Fwww.hemmy.net%2Fimages%2Fcar%2Fcoolbus01.jpg\', ...}, {u\'comments\': {u\'count\': 1, u\'data\': [{u\'created_time\': u\'2010-11-04T16:08:44+0000\', u\'from\': {...}, u\'id\': u\'1603106506_129857193734845_805008\', u\'message\': u\':D\'}]}, u\'created_time\': u\'2010-11-04T15:53:34+0000\', u\'from\': {u\'id\': u\'1603106506\', u\'name\': u\'Petra B\\xe9czi\'}, u\'id\': u\'1603106506_129857193734845\', u\'message\': u\'Seems like Facebook\\\'s stupidest applications ...nd of sock are you?".."Daily bullshit for you"..\', u\'type\': u\'status\', u\'updated_time\': u\'2010-11-04T16:08:44+0000\'}, {u\'created_time\': u\'2010-11-03T13:09:49+0000\', u\'from\': {u\'id\': u\'1603106506\', u\'name\': u\'Petra B\\xe9czi\'}, u\'id\': u\'1603106506_108113792587749\', u\'likes\': 1, u\'message\': u\'Tanulom a html nyelvet\', u\'type\': u\'status\', u\'updated_time\': u\'2010-11-03T13:09:49+0000\'}, {u\'caption\': u\'cffc.chs.chalmers.se\', u\'comments\': {u\'count\': 2, u\'data\': [{u\'created_time\': u\'2010-11-01T16:15:50+0000\', u\'from\': {...}, u\'id\': u\'1603106506_163943030293193_1805931\', u\'message\': u\'De j\\xf3 volt!!!!!!\'}, {u\'created_time\': u\'2010-11-04T15:48:01+0000\', u\'from\': {...}, u\'id\': u\'1603106506_163943030293193_1832805\', u\'message\': u\'Somebody should dress as Mr.Bean next time.\'}]}, u\'created_time\': u\'2010-11-01T16:15:20+0000\', u\'description\': u\'Foto fr\\xe5n Chalmers Film- & Fotocommitt\\xe9\', u\'from\': {u\'id\': u\'1603106506\', u\'name\': u\'Petra B\\xe9czi\'}, u\'icon\': u\'http://b.static.ak.fbcdn.net/rsrc.php/zz/r/StEh3RhPvjk.gif\', u\'id\': u\'1603106506_163943030293193\', u\'likes\': 2, u\'link\': u\'http://cffc.chs.chalmers.se/bilder/2010/halloweenkalaset/\', u\'message\': u\'http://cffc.chs.chalmers.se/bilder/2010/halloweenkalaset/\', ...}, {u\'comments\': {u\'count\': 1, u\'data\': [{u\'created_time\': u\'2010-10-30T10:00:19+0000\', u\'from\': {...}, u\'id\': u\'1603106506_159489384090916_1711704\', u\'message\': u\'Valahogy \\xe9reztem, hogy neked ez tetszeni fog :D\'}]}, u\'created_time\': u\'2010-10-30T09:52:55+0000\', u\'from\': {u\'id\': u\'1603106506\', u\'name\': u\'Petra B\\xe9czi\'}, u\'id\': u\'1603106506_159489384090916\', u\'likes\': 3, u\'message\': u\'Today halloween party , costumes and beers!!!\', u\'type\': u\'status\', u\'updated_time\': u\'2010-10-30T10:00:19+0000\'}, {u\'caption\': u\'www.familyguyepisodes.tv\', u\'created_time\': u\'2010-10-28T11:38:46+0000\', u\'description\': u"Watch he\'s too sexy for his fat - Chris become...iet, eats too much and starts to develop an eati", u\'from\': {u\'id\': u\'1603106506\', u\'name\': u\'Petra B\\xe9czi\'}, u\'icon\': u\'http://b.static.ak.fbcdn.net/rsrc.php/zD/r/aS8ecmYRys0.gif\', u\'id\': u\'1603106506_119657118095880\', u\'link\': u\'http://www.familyguyepisodes.tv/family_guy_season_2_episode_17_hes_too_sexy_for_his_fat.html\', u\'message\': u\'Peter lose his fat\', u\'name\': u"Watch Family Guy Season 2, Episode 17 - He\'s Too Sexy For His Fat", u\'type\': u\'link\', ...}, {u\'created_time\': u\'2010-10-27T07:59:40+0000\', u\'from\': {u\'id\': u\'1603106506\', u\'name\': u\'Petra B\\xe9czi\'}, u\'id\': u\'1603106506_119446514781847\', u\'message\': u\'Esik az es\\u0151 =/\', u\'type\': u\'status\', u\'updated_time\': u\'2010-10-27T07:59:40+0000\'}, {u\'caption\': u\'www.youtube.com\', u\'created_time\': u\'2010-10-26T09:27:25+0000\', u\'description\': u\'Magyar n\\xe9mes\\xe9k sorozat. www.magyarnepmesek.hu\', u\'from\': {u\'id\': u\'1603106506\', u\'name\': u\'Petra B\\xe9czi\'}, u\'icon\': u\'http://static.ak.fbcdn.net/rsrc.php/zj/r/v2OnaTyTQZE.gif\', u\'id\': u\'1603106506_161871040511660\', u\'link\': u\'http://www.youtube.com/watch?v=jMZxT5r2Y5c\', u\'message\': u\'"A liba meg \\xfat k\\xf6zben le-le fosta :D"\', u\'name\': u\'A butyuta ember (Magyar n\\xe9pmese)\', u\'picture\': u\'http://external.ak.fbcdn.net/safe_image.php?d=...p%3A%2F%2Fi.ytimg.com%2Fvi%2FjMZxT5r2Y5c%2F3.jpg\', ...}, {u\'caption\': u\'www.youtube.com\', u\'created_time\': u\'2010-10-25T10:09:23+0000\', u\'description\': u\'But what changes will the Chinese government demand?\', u\'from\': {u\'id\': u\'1603106506\', u\'name\': u\'Petra B\\xe9czi\'}, u\'icon\': u\'http://static.ak.fbcdn.net/rsrc.php/zj/r/v2OnaTyTQZE.gif\', u\'id\': u\'1603106506_160756407292135\', u\'link\': u\'http://www.youtube.com/watch?v=PxymwN7nYQQ\', u\'name\': u\'SpongeBob Square Pants in China\', u\'picture\': u\'http://external.ak.fbcdn.net/safe_image.php?d=...p%3A%2F%2Fi.ytimg.com%2Fvi%2FPxymwN7nYQQ%2F0.jpg\', u\'source\': u\'http://www.youtube.com/v/PxymwN7nYQQ&autoplay=1\', ...}, {u\'caption\': u\'www.youtube.com\', u\'created_time\': u\'2010-10-25T09:39:24+0000\', u\'description\': u\'ecco finalmente pubblicato questo video. La ca...nza, la trovo molto "vicina" alla vita...    Lou\', u\'from\': {u\'id\': u\'1603106506\', u\'name\': u\'Petra B\\xe9czi\'}, u\'icon\': u\'http://static.ak.fbcdn.net/rsrc.php/zj/r/v2OnaTyTQZE.gif\', u\'id\': u\'1603106506_171438216204541\', u\'link\': u\'http://www.youtube.com/watch?v=5-ltDECc2bA\', u\'name\': u\'PERFECT DAY - Lou Reed\', u\'picture\': u\'http://external.ak.fbcdn.net/safe_image.php?d=...p%3A%2F%2Fi.ytimg.com%2Fvi%2F5-ltDECc2bA%2F0.jpg\', u\'source\': u\'http://www.youtube.com/v/5-ltDECc2bA&autoplay=1\', ...}, {u\'caption\': u\'bombahir.hu\', u\'created_time\': u\'2010-10-25T07:45:24+0000\', u\'description\': u\'Bombah\\xedr - F\\xfcggetlen h\\xedrport\\xe1l\', u\'from\': {u\'id\': u\'1603106506\', u\'name\': u\'Petra B\\xe9czi\'}, u\'icon\': u\'http://b.static.ak.fbcdn.net/rsrc.php/zD/r/aS8ecmYRys0.gif\', u\'id\': u\'1603106506_164728193555565\', u\'link\': u\'http://bombahir.hu/index.php?option=com_conten...an&catid=113%3Arovat-kulfold-messzebb&Itemid=495\', u\'message\': u\'Barb\\xe1r, buta egy n\\xe9ps\\xe9g . M\\xe9g egym... sem fejl\\u0151dtek se testileg se szellemileg .\', u\'name\': u\'\\xdajabb ritu\\xe1lis gyilkoss\\xe1gok Afrik\\xe1ban\', u\'picture\': u\'http://external.ak.fbcdn.net/safe_image.php?d=..._e553b0105d39d6eac8fe41f21b5c3e91_wm_200_200.jpg\', ...}, {u\'actions\': [{u\'link\': u\'http://apps.facebook.com/myphrases/apps/?id=404673&stream_cl=1\', u\'name\': u\'10\'}], u\'attribution\': u\'Phrases\', u\'caption\': u\'Petra megkapta:\', u\'comments\': {u\'count\': 1, u\'data\': [{u\'created_time\': u\'2010-10-22T16:44:13+0000\', u\'from\': {...}, u\'id\': u\'1603106506_105969646136449_138965\', u\'message\': u\'Ja, tudod, elvalok a regitol es  hozzamegyek a mostanihoz :D\'}]}, u\'created_time\': u\'2010-10-22T14:09:16+0000\', u\'from\': {u\'id\': u\'1603106506\', u\'name\': u\'Petra B\\xe9czi\'}, u\'icon\': u\'http://photos-b.ak.fbcdn.net/photos-ak-snc1/v43/240/350031875244/app_2_350031875244_2165.gif\', u\'id\': u\'1603106506_105969646136449\', u\'likes\': 2, u\'link\': u\'http://apps.facebook.com/myphrases/apps/?id=404673&stream_cl=1\', ...}, {u\'caption\': u\'www.gumicsizma.hu\', u\'created_time\': u\'2010-10-18T13:54:25+0000\', u\'description\': u\'Vicces, humoros k\\xe9pek \\xe9s vide\\xf3k. Vicc...hj\\xe1t\\xe9kok \\xe9s viccek gy\\u0171jtem\\xe9nye.\', u\'from\': {u\'id\': u\'1603106506\', u\'name\': u\'Petra B\\xe9czi\'}, u\'icon\': u\'http://b.static.ak.fbcdn.net/rsrc.php/zD/r/aS8ecmYRys0.gif\', u\'id\': u\'1603106506_167874239895178\', u\'link\': u\'http://www.gumicsizma.hu/view_video?view=YTozOntzOjU6ImNhdGVnIjtzOjI6IjM1IjtzOjg6Im\', u\'message\': u\'Link: http://www.gumicsizma.hu/view_video?view...IjtzOjU6IjM1NTc5IjtzOjQ6Im9wZW4iO3M6MToiNCI7fQ==\', u\'name\': u\'Gumicsizma - Vicces vide\\xf3k, Vicces k\\xe9pek gy\\u0171jtem\\xe9nye\', u\'picture\': u\'http://external.ak.fbcdn.net/safe_image.php?d=...2Fwww.gumicsizma.hu%2Fimages%2Fgumicsizma_69.jpg\', ...}, {u\'caption\': u\'www.netszar.com\', u\'comments\': {u\'count\': 1, u\'data\': [{u\'created_time\': u\'2010-10-18T06:43:54+0000\', u\'from\': {...}, u\'id\': u\'1603106506_158196284213718_1667538\', u\'message\': u\':D\'}]}, u\'created_time\': u\'2010-10-17T11:54:20+0000\', u\'description\': u\'netsz@r.com    \\xa9 2007 All Rights Reserved. ...jegyz\\xe9sek | V\\xe9lem\\xe9nyek | Adatv\\xe9delem\', u\'from\': {u\'id\': u\'1603106506\', u\'name\': u\'Petra B\\xe9czi\'}, u\'icon\': u\'http://b.static.ak.fbcdn.net/rsrc.php/zD/r/aS8ecmYRys0.gif\', u\'id\': u\'1603106506_158196284213718\', u\'link\': u\'http://www.netszar.com/kep/2010/10/16/napi-cukisag-9/\', u\'message\': u\'K\\xednai hotdog :D\', u\'name\': u\'netsz@r.com | Napi cukis\\xe1g\', ...}, {u\'caption\': u\'Sacco frizur\\xe1k a Salonr\\xf3l\', u\'created_time\': u\'2010-10-16T15:45:09+0000\', u\'from\': {u\'id\': u\'1603106506\', u\'name\': u\'Petra B\\xe9czi\'}, u\'icon\': u\'http://b.static.ak.fbcdn.net/rsrc.php/zD/r/aS8ecmYRys0.gif\', u\'id\': u\'1603106506_138379459543759\', u\'link\': u\'http://www.facebook.com/photo.php?fbid=158523410848436&set=-.\', u\'message\': u\'J\\xe9zusom, ott k\\xf6z\\xe9pen az a v\\xf6r\\xf6s t\\xe9nyleg olyan ,mint egy szakadt gomba.\', u\'name\': u\'Mobiluppladdningar\', u\'picture\': u\'http://photos-d.ak.fbcdn.net/hphotos-ak-snc4/h...23410848436_100000723342504_316937_2906171_s.jpg\', u\'properties\': [{u\'href\': u\'http://www.facebook.com/profile.php?id=100000723342504\', u\'name\': u\'Tillh\\xf6rande\', u\'text\': u\'Tam\\xe1s Zsidr\\xf3\'}], ...}, {u\'comments\': {u\'count\': 6, u\'data\': [{u\'created_time\': u\'2010-10-17T11:53:01+0000\', u\'from\': {...}, u\'id\': u\'1603106506_146962562015274_1349373\', u\'message\': u\'M\\xe9g nem, most j\\xf6n csak a java. De szerin...r jobb lesz. \\nM\\xe9g j\\xf3 , nekem \\xedzlett :D\'}]}, u\'created_time\': u\'2010-10-16T08:05:41+0000\', u\'from\': {u\'id\': u\'1603106506\', u\'name\': u\'Petra B\\xe9czi\'}, u\'id\': u\'1603106506_146962562015274\', u\'message\': u\'Beteg vagyok , faj a torkom es elhordtak az os...glepo, mivel mindenki utalja, en  kulonoskeppen!\', u\'type\': u\'status\', u\'updated_time\': u\'2010-10-17T11:53:01+0000\'}, {u\'caption\': u\'www.youtube.com\', u\'created_time\': u\'2010-10-13T14:04:05+0000\', u\'description\': u\'Annoying Orange hangs out with the whole gang....OOTH: http://dailybooth.com/annoyingorange   ...\', u\'from\': {u\'id\': u\'1603106506\', u\'name\': u\'Petra B\\xe9czi\'}, u\'icon\': u\'http://static.ak.fbcdn.net/rsrc.php/zj/r/v2OnaTyTQZE.gif\', u\'id\': u\'1603106506_158867900803089\', u\'link\': u\'http://www.youtube.com/watch?v=cL_qGMfbtAk\', u\'message\': u\'ezt a szart\', u\'name\': u\'Annoying Orange Wazzup\', u\'picture\': u\'http://external.ak.fbcdn.net/safe_image.php?d=...p%3A%2F%2Fi.ytimg.com%2Fvi%2FcL_qGMfbtAk%2F0.jpg\', ...}, {u\'created_time\': u\'2010-10-13T07:37:17+0000\', u\'from\': {u\'id\': u\'1603106506\', u\'name\': u\'Petra B\\xe9czi\'}, u\'id\': u\'1603106506_125261974194771\', u\'message\': u\'-1 fok van :(\', u\'type\': u\'status\', u\'updated_time\': u\'2010-10-13T07:37:17+0000\'}, {u\'actions\': [{u\'link\': u\'http://apps.facebook.com/tripadvisortravelmap/?a=MAP&fbsrc=nfFavoritesFigsLink1\', u\'name\': u\'Pick your favorites!\'}], u\'attribution\': u"TripAdvisor - Cities I\'ve Visited\\u2122", u\'caption\': u\'Petra just picked his/her favorite cities:\', u\'comments\': {u\'count\': 1, u\'data\': [{u\'created_time\': u\'2010-10-13T07:26:08+0000\', u\'from\': {...}, u\'id\': u\'1603106506_141884399190583_1197105\', u\'message\': u\'Neeem, de olyan funkci\\xf3 nem volt, hogy hol sz\\xfclettem...csak, hogy hol j\\xe1rtam stb..\'}]}, u\'created_time\': u\'2010-10-12T07:46:19+0000\', u\'description\': u\'1. Budapest, Hungary / 2. Gothenburg, Sweden \', u\'from\': {u\'id\': u\'1603106506\', u\'name\': u\'Petra B\\xe9czi\'}, u\'icon\': u\'http://photos-b.ak.fbcdn.net/photos-ak-snc1/v43/246/2219089314/app_2_2219089314_7035.gif\', u\'id\': u\'1603106506_141884399190583\', u\'link\': u\'http://apps.facebook.com/tripadvisortravelmap/?a=MAP&fbsrc=nfFavoritesFigs\', ...}, {u\'caption\': u\'www.youtube.com\', u\'created_time\': u\'2010-10-11T14:41:16+0000\', u\'description\': u\'Vili a ver\\xe9b c. magyar rajzfilm 1988-b\\xf3l...e9sz: http://www.youtube.com/watch?v=tO9vdPFggZk\', u\'from\': {u\'id\': u\'1603106506\', u\'name\': u\'Petra B\\xe9czi\'}, u\'icon\': u\'http://static.ak.fbcdn.net/rsrc.php/zj/r/v2OnaTyTQZE.gif\', u\'id\': u\'1603106506_154629724576718\', u\'likes\': 2, u\'link\': u\'http://www.youtube.com/watch?v=1ly-DnTZPlM\', u\'message\': u\'De im\\xe1dtam ezt a filmet!!!\', u\'name\': u\'Vili a ver\\xe9b part 1/8\', ...}], u\'paging\': {u\'next\': u\'https://graph.facebook.com/1603106506/feed?acc...Sc&limit=25&until=2010-10-11T14%3A41%3A15%2B0000\', u\'previous\': u\'https://graph.facebook.com/1603106506/feed?acc...Sc&limit=25&since=2010-11-04T15%3A59%3A28%2B0000\'}}'
p265
sS'user'
p266
S"<Storage {'username': '326200042', 'first_name':...assword': None, 'registration_key': '', 'id': 1}>"
p267
sS'v'
S'{u\'comments\': {u\'count\': 1, u\'data\': [{u\'created_time\': u\'2010-11-04T16:08:44+0000\', u\'from\': {u\'id\': u\'1603106506\', u\'name\': u\'Petra B\\xe9czi\'}, u\'id\': u\'1603106506_129857193734845_805008\', u\'message\': u\':D\'}]}, u\'created_time\': u\'2010-11-04T15:53:34+0000\', u\'from\': {u\'id\': u\'1603106506\', u\'name\': u\'Petra B\\xe9czi\'}, u\'id\': u\'1603106506_129857193734845\', u\'message\': u\'Seems like Facebook\\\'s stupidest applications ...nd of sock are you?".."Daily bullshit for you"..\', u\'type\': u\'status\', u\'updated_time\': u\'2010-11-04T16:08:44+0000\'}'
p268
sssS'traceback'
p269
S'Traceback (most recent call last):\n  File "/home/zhe/codes/awesomequiz/web2py/gluon/restricted.py", line 188, in restricted\n    exec ccode in environment\n  File "/home/zhe/codes/awesomequiz/web2py/applications/init/controllers/graph.py", line 41, in <module>\n  File "/home/zhe/codes/awesomequiz/web2py/gluon/globals.py", line 96, in <lambda>\n    self._caller = lambda f: f()\n  File "/home/zhe/codes/awesomequiz/web2py/gluon/tools.py", line 2270, in f\n    return action(*a, **b)\n  File "/home/zhe/codes/awesomequiz/web2py/applications/init/controllers/graph.py", line 37, in connection\n    response.menu=[[v[\'name\'], False, URL(r=request, f=\'index\', args=[\'id\', v[\'id\']])]  for v in connections[\'data\']]\nKeyError: \'name\'\n'
p270
s.