(dp1
S'fb_uid'
p2
S'CHAR(30)'
p3
sS'character_id'
p4
S'INTEGER REFERENCES characters(id) ON DELETE CASCADE'
p5
sS'uid'
p6
S'CHAR(25)'
p7
sS'fb_id'
p8
S'CHAR(25)'
p9
sS'fb_token'
p10
S'CHAR(512)'
p11
sS'id'
p12
S'INTEGER PRIMARY KEY AUTOINCREMENT'
p13
s.